TN:
SF:/home/haaken/github-projects/fgcom-mumble/test/webrtc_api_tests/main.cpp
FN:108,112,_ZN18WebRTCTestListener16OnTestPartResultERKN7testing14TestPartResultE
FN:117,125,_ZN18WebRTCTestListener13logTestResultERKN7testing8TestInfoEl
FN:129,244,_Z24registerWebRTCTestSuitesv
FN:134,134,_ZZ24registerWebRTCTestSuitesvENKUlvE_clEv
FN:140,140,_ZZ24registerWebRTCTestSuitesvENKUlvE0_clEv
FN:146,146,_ZZ24registerWebRTCTestSuitesvENKUlvE1_clEv
FN:152,152,_ZZ24registerWebRTCTestSuitesvENKUlvE2_clEv
FN:158,158,_ZZ24registerWebRTCTestSuitesvENKUlvE3_clEv
FN:164,164,_ZZ24registerWebRTCTestSuitesvENKUlvE4_clEv
FN:170,170,_ZZ24registerWebRTCTestSuitesvENKUlvE5_clEv
FN:176,176,_ZZ24registerWebRTCTestSuitesvENKUlvE6_clEv
FN:182,182,_ZZ24registerWebRTCTestSuitesvENKUlvE7_clEv
FN:188,188,_ZZ24registerWebRTCTestSuitesvENKUlvE8_clEv
FN:194,194,_ZZ24registerWebRTCTestSuitesvENKUlvE9_clEv
FN:200,200,_ZZ24registerWebRTCTestSuitesvENKUlvE10_clEv
FN:206,206,_ZZ24registerWebRTCTestSuitesvENKUlvE11_clEv
FN:212,212,_ZZ24registerWebRTCTestSuitesvENKUlvE12_clEv
FN:218,218,_ZZ24registerWebRTCTestSuitesvENKUlvE13_clEv
FN:224,224,_ZZ24registerWebRTCTestSuitesvENKUlvE14_clEv
FN:230,230,_ZZ24registerWebRTCTestSuitesvENKUlvE15_clEv
FN:236,236,_ZZ24registerWebRTCTestSuitesvENKUlvE16_clEv
FN:242,242,_ZZ24registerWebRTCTestSuitesvENKUlvE17_clEv
FN:246,300,main
FN:53,77,_ZN24WebRTCAPITestEnvironment5SetUpEv
FN:79,86,_ZN24WebRTCAPITestEnvironment8TearDownEv
FN:92,95,_ZN18WebRTCTestListener11OnTestStartERKN7testing8TestInfoE
FN:97,106,_ZN18WebRTCTestListener9OnTestEndERKN7testing8TestInfoE
FNDA:0,_ZN18WebRTCTestListener16OnTestPartResultERKN7testing14TestPartResultE
FNDA:19,_ZN18WebRTCTestListener13logTestResultERKN7testing8TestInfoEl
FNDA:1,_Z24registerWebRTCTestSuitesv
FNDA:1,_ZZ24registerWebRTCTestSuitesvENKUlvE_clEv
FNDA:1,_ZZ24registerWebRTCTestSuitesvENKUlvE0_clEv
FNDA:1,_ZZ24registerWebRTCTestSuitesvENKUlvE1_clEv
FNDA:1,_ZZ24registerWebRTCTestSuitesvENKUlvE2_clEv
FNDA:1,_ZZ24registerWebRTCTestSuitesvENKUlvE3_clEv
FNDA:1,_ZZ24registerWebRTCTestSuitesvENKUlvE4_clEv
FNDA:1,_ZZ24registerWebRTCTestSuitesvENKUlvE5_clEv
FNDA:1,_ZZ24registerWebRTCTestSuitesvENKUlvE6_clEv
FNDA:1,_ZZ24registerWebRTCTestSuitesvENKUlvE7_clEv
FNDA:1,_ZZ24registerWebRTCTestSuitesvENKUlvE8_clEv
FNDA:1,_ZZ24registerWebRTCTestSuitesvENKUlvE9_clEv
FNDA:1,_ZZ24registerWebRTCTestSuitesvENKUlvE10_clEv
FNDA:1,_ZZ24registerWebRTCTestSuitesvENKUlvE11_clEv
FNDA:1,_ZZ24registerWebRTCTestSuitesvENKUlvE12_clEv
FNDA:1,_ZZ24registerWebRTCTestSuitesvENKUlvE13_clEv
FNDA:1,_ZZ24registerWebRTCTestSuitesvENKUlvE14_clEv
FNDA:1,_ZZ24registerWebRTCTestSuitesvENKUlvE15_clEv
FNDA:1,_ZZ24registerWebRTCTestSuitesvENKUlvE16_clEv
FNDA:1,_ZZ24registerWebRTCTestSuitesvENKUlvE17_clEv
FNDA:1,main
FNDA:1,_ZN24WebRTCAPITestEnvironment5SetUpEv
FNDA:1,_ZN24WebRTCAPITestEnvironment8TearDownEv
FNDA:19,_ZN18WebRTCTestListener11OnTestStartERKN7testing8TestInfoE
FNDA:19,_ZN18WebRTCTestListener9OnTestEndERKN7testing8TestInfoE
FNF:27
FNH:26
DA:53,1
DA:54,1
DA:57,1
DA:58,1
DA:59,1
DA:60,1
DA:61,1
DA:62,1
DA:63,1
DA:66,1
DA:67,1
DA:68,1
DA:70,1
DA:74,1
DA:76,1
DA:77,1
DA:79,1
DA:80,1
DA:83,1
DA:85,1
DA:86,1
DA:92,19
DA:93,19
DA:94,19
DA:95,19
DA:97,19
DA:98,19
DA:99,19
DA:102,19
DA:105,19
DA:106,19
DA:108,0
DA:109,0
DA:110,0
DA:112,0
DA:117,19
DA:118,19
DA:119,19
DA:120,19
DA:122,19
DA:123,19
DA:125,19
DA:129,1
DA:131,1
DA:134,1
DA:137,1
DA:140,1
DA:143,1
DA:146,1
DA:149,1
DA:152,1
DA:155,1
DA:158,1
DA:161,1
DA:164,1
DA:167,1
DA:170,1
DA:173,1
DA:176,1
DA:179,1
DA:182,1
DA:185,1
DA:188,1
DA:191,1
DA:194,1
DA:197,1
DA:200,1
DA:203,1
DA:206,1
DA:209,1
DA:212,1
DA:215,1
DA:218,1
DA:221,1
DA:224,1
DA:227,1
DA:230,1
DA:233,1
DA:236,1
DA:239,1
DA:242,1
DA:244,1
DA:246,1
DA:247,1
DA:248,1
DA:249,1
DA:252,1
DA:255,1
DA:258,1
DA:261,1
DA:262,1
DA:265,1
DA:268,1
DA:269,0
DA:270,0
DA:271,0
DA:272,0
DA:273,0
DA:274,0
DA:275,0
DA:276,0
DA:277,0
DA:278,0
DA:279,0
DA:280,0
DA:281,0
DA:282,0
DA:283,0
DA:284,0
DA:285,0
DA:287,0
DA:290,1
DA:293,1
DA:294,1
DA:296,0
DA:299,1
LF:116
LH:93
end_of_record
TN:
SF:/home/haaken/github-projects/fgcom-mumble/test/webrtc_api_tests/test_audio_processing.h
FN:29,31,_ZN19AudioProcessingTest5SetUpEv
FN:33,36,_ZN19AudioProcessingTest8TestBodyEv
FNDA:1,_ZN19AudioProcessingTest5SetUpEv
FNDA:1,_ZN19AudioProcessingTest8TestBodyEv
FNF:2
FNH:2
DA:29,1
DA:30,1
DA:31,1
DA:33,1
DA:35,1
DA:36,1
LF:6
LH:6
end_of_record
TN:
SF:/home/haaken/github-projects/fgcom-mumble/test/webrtc_api_tests/test_audio_quality.h
FN:29,31,_ZN16AudioQualityTest5SetUpEv
FN:33,36,_ZN16AudioQualityTest8TestBodyEv
FNDA:1,_ZN16AudioQualityTest5SetUpEv
FNDA:1,_ZN16AudioQualityTest8TestBodyEv
FNF:2
FNH:2
DA:29,1
DA:30,1
DA:31,1
DA:33,1
DA:35,1
DA:36,1
LF:6
LH:6
end_of_record
TN:
SF:/home/haaken/github-projects/fgcom-mumble/test/webrtc_api_tests/test_authentication.h
FN:29,31,_ZN18AuthenticationTest5SetUpEv
FN:33,36,_ZN18AuthenticationTest8TestBodyEv
FN:41,43,_ZN21SessionManagementTest5SetUpEv
FN:45,48,_ZN21SessionManagementTest8TestBodyEv
FNDA:1,_ZN18AuthenticationTest5SetUpEv
FNDA:1,_ZN18AuthenticationTest8TestBodyEv
FNDA:1,_ZN21SessionManagementTest5SetUpEv
FNDA:1,_ZN21SessionManagementTest8TestBodyEv
FNF:4
FNH:4
DA:29,1
DA:30,1
DA:31,1
DA:33,1
DA:35,1
DA:36,1
DA:41,1
DA:42,1
DA:43,1
DA:45,1
DA:47,1
DA:48,1
LF:12
LH:12
end_of_record
TN:
SF:/home/haaken/github-projects/fgcom-mumble/test/webrtc_api_tests/test_cross_platform.h
FN:29,31,_ZN17CrossPlatformTest5SetUpEv
FN:33,36,_ZN17CrossPlatformTest8TestBodyEv
FNDA:1,_ZN17CrossPlatformTest5SetUpEv
FNDA:1,_ZN17CrossPlatformTest8TestBodyEv
FNF:2
FNH:2
DA:29,1
DA:30,1
DA:31,1
DA:33,1
DA:35,1
DA:36,1
LF:6
LH:6
end_of_record
TN:
SF:/home/haaken/github-projects/fgcom-mumble/test/webrtc_api_tests/test_error_recovery.h
FN:29,31,_ZN17ErrorRecoveryTest5SetUpEv
FN:33,36,_ZN17ErrorRecoveryTest8TestBodyEv
FNDA:1,_ZN17ErrorRecoveryTest5SetUpEv
FNDA:1,_ZN17ErrorRecoveryTest8TestBodyEv
FNF:2
FNH:2
DA:29,1
DA:30,1
DA:31,1
DA:33,1
DA:35,1
DA:36,1
LF:6
LH:6
end_of_record
TN:
SF:/home/haaken/github-projects/fgcom-mumble/test/webrtc_api_tests/test_full_workflow.h
FN:29,31,_ZN16FullWorkflowTest5SetUpEv
FN:33,36,_ZN16FullWorkflowTest8TestBodyEv
FNDA:1,_ZN16FullWorkflowTest5SetUpEv
FNDA:1,_ZN16FullWorkflowTest8TestBodyEv
FNF:2
FNH:2
DA:29,1
DA:30,1
DA:31,1
DA:33,1
DA:35,1
DA:36,1
LF:6
LH:6
end_of_record
TN:
SF:/home/haaken/github-projects/fgcom-mumble/test/webrtc_api_tests/test_mobile_compatibility.h
FN:29,31,_ZN23MobileCompatibilityTest5SetUpEv
FN:33,36,_ZN23MobileCompatibilityTest8TestBodyEv
FNDA:1,_ZN23MobileCompatibilityTest5SetUpEv
FNDA:1,_ZN23MobileCompatibilityTest8TestBodyEv
FNF:2
FNH:2
DA:29,1
DA:30,1
DA:31,1
DA:33,1
DA:35,1
DA:36,1
LF:6
LH:6
end_of_record
TN:
SF:/home/haaken/github-projects/fgcom-mumble/test/webrtc_api_tests/test_performance.h
FN:29,31,_ZN15PerformanceTest5SetUpEv
FN:33,36,_ZN15PerformanceTest8TestBodyEv
FN:41,43,_ZN13BandwidthTest5SetUpEv
FN:45,48,_ZN13BandwidthTest8TestBodyEv
FNDA:1,_ZN15PerformanceTest5SetUpEv
FNDA:1,_ZN15PerformanceTest8TestBodyEv
FNDA:1,_ZN13BandwidthTest5SetUpEv
FNDA:1,_ZN13BandwidthTest8TestBodyEv
FNF:4
FNH:4
DA:29,1
DA:30,1
DA:31,1
DA:33,1
DA:35,1
DA:36,1
DA:41,1
DA:42,1
DA:43,1
DA:45,1
DA:47,1
DA:48,1
LF:12
LH:12
end_of_record
TN:
SF:/home/haaken/github-projects/fgcom-mumble/test/webrtc_api_tests/test_protocol_translation.h
FN:29,31,_ZN23ProtocolTranslationTest5SetUpEv
FN:33,36,_ZN23ProtocolTranslationTest8TestBodyEv
FNDA:2,_ZN23ProtocolTranslationTest5SetUpEv
FNDA:2,_ZN23ProtocolTranslationTest8TestBodyEv
FNF:2
FNH:2
DA:29,2
DA:30,2
DA:31,2
DA:33,2
DA:35,2
DA:36,2
LF:6
LH:6
end_of_record
TN:
SF:/home/haaken/github-projects/fgcom-mumble/test/webrtc_api_tests/test_web_interface.h
FN:29,31,_ZN16WebInterfaceTest5SetUpEv
FN:33,36,_ZN16WebInterfaceTest8TestBodyEv
FN:41,43,_ZN18MapIntegrationTest5SetUpEv
FN:45,48,_ZN18MapIntegrationTest8TestBodyEv
FNDA:1,_ZN16WebInterfaceTest5SetUpEv
FNDA:1,_ZN16WebInterfaceTest8TestBodyEv
FNDA:1,_ZN18MapIntegrationTest5SetUpEv
FNDA:1,_ZN18MapIntegrationTest8TestBodyEv
FNF:4
FNH:4
DA:29,1
DA:30,1
DA:31,1
DA:33,1
DA:35,1
DA:36,1
DA:41,1
DA:42,1
DA:43,1
DA:45,1
DA:47,1
DA:48,1
LF:12
LH:12
end_of_record
TN:
SF:/home/haaken/github-projects/fgcom-mumble/test/webrtc_api_tests/test_webrtc_connection.h
FN:29,31,_ZN20WebRTCConnectionTest5SetUpEv
FN:33,36,_ZN20WebRTCConnectionTest8TestBodyEv
FN:41,43,_ZN19WebRTCSignalingTest5SetUpEv
FN:45,48,_ZN19WebRTCSignalingTest8TestBodyEv
FN:53,55,_ZN21WebRTCAudioStreamTest5SetUpEv
FN:57,60,_ZN21WebRTCAudioStreamTest8TestBodyEv
FNDA:1,_ZN20WebRTCConnectionTest5SetUpEv
FNDA:1,_ZN20WebRTCConnectionTest8TestBodyEv
FNDA:1,_ZN19WebRTCSignalingTest5SetUpEv
FNDA:1,_ZN19WebRTCSignalingTest8TestBodyEv
FNDA:1,_ZN21WebRTCAudioStreamTest5SetUpEv
FNDA:1,_ZN21WebRTCAudioStreamTest8TestBodyEv
FNF:6
FNH:6
DA:29,1
DA:30,1
DA:31,1
DA:33,1
DA:35,1
DA:36,1
DA:41,1
DA:42,1
DA:43,1
DA:45,1
DA:47,1
DA:48,1
DA:53,1
DA:54,1
DA:55,1
DA:57,1
DA:59,1
DA:60,1
LF:18
LH:18
end_of_record
TN:
SF:/home/haaken/github-projects/fgcom-mumble/test/webrtc_api_tests/test_webrtc_mumble_integration.h
FN:29,31,_ZN29WebRTCToMumbleIntegrationTest5SetUpEv
FN:33,36,_ZN29WebRTCToMumbleIntegrationTest8TestBodyEv
FN:41,43,_ZN29WebRTCToMumbleMultiClientTest5SetUpEv
FN:45,48,_ZN29WebRTCToMumbleMultiClientTest8TestBodyEv
FNDA:1,_ZN29WebRTCToMumbleIntegrationTest5SetUpEv
FNDA:1,_ZN29WebRTCToMumbleIntegrationTest8TestBodyEv
FNDA:1,_ZN29WebRTCToMumbleMultiClientTest5SetUpEv
FNDA:1,_ZN29WebRTCToMumbleMultiClientTest8TestBodyEv
FNF:4
FNH:4
DA:29,1
DA:30,1
DA:31,1
DA:33,1
DA:35,1
DA:36,1
DA:41,1
DA:42,1
DA:43,1
DA:45,1
DA:47,1
DA:48,1
LF:12
LH:12
end_of_record
TN:
SF:/home/haaken/github-projects/fgcom-mumble/test/webrtc_api_tests/webrtc_test_framework.cpp
FN:119,123,_ZN19WebRTCTestFramework17validateRadioDataERK9RadioData
FN:125,128,_ZN19WebRTCTestFramework9jsonToUDPERKNSt7__cxx1112basic_stringIcSt11char_traitsIcESaIcEEE
FN:130,133,_ZN19WebRTCTestFramework9udpToJSONERKNSt7__cxx1112basic_stringIcSt11char_traitsIcESaIcEEE
FN:135,137,_ZN19WebRTCTestFramework27validateProtocolTranslationERKNSt7__cxx1112basic_stringIcSt11char_traitsIcESaIcEEES7_
FN:139,141,_ZN19WebRTCTestFramework14measureLatencyEv
FN:143,145,_ZN19WebRTCTestFramework16measureBandwidthEv
FN:147,149,_ZN19WebRTCTestFramework19validatePerformanceEdd
FN:151,153,_ZN19WebRTCTestFramework20simulateNetworkErrorEv
FN:155,157,_ZN19WebRTCTestFramework18simulateAudioErrorEv
FN:159,162,_ZN19WebRTCTestFramework22simulateConnectionLossEv
FN:164,167,_ZN19WebRTCTestFramework17restoreConnectionEv
FN:169,174,_ZN19WebRTCTestFramework20generateTestCallsignB5cxx11Ev
FN:176,194,_ZN19WebRTCTestFramework21generateTestRadioDataEv
FN:196,198,_ZN19WebRTCTestFramework16generateTestJSONB5cxx11Ev
FN:200,202,_ZN19WebRTCTestFramework15generateTestUDPB5cxx11Ev
FN:205,207,_ZN19WebRTCTestFramework19createTestRadioDataEv
FN:209,211,_ZN19WebRTCTestFramework14createTestJSONB5cxx11Ev
FN:213,215,_ZN19WebRTCTestFramework13createTestUDPB5cxx11Ev
FN:217,222,_ZN19WebRTCTestFramework13logTestResultERKNSt7__cxx1112basic_stringIcSt11char_traitsIcESaIcEEEbS7_
FN:224,227,_ZN19WebRTCTestFramework15logAudioQualityERK19AudioQualityMetrics
FN:229,233,_ZN19WebRTCTestFramework14logPerformanceEdd
FN:33,38,_ZN19WebRTCTestFramework10initializeEv
FN:40,45,_ZN19WebRTCTestFramework7cleanupEv
FN:47,49,_ZN19WebRTCTestFramework9getConfigEv
FN:51,56,_ZN19WebRTCTestFramework19establishConnectionERKNSt7__cxx1112basic_stringIcSt11char_traitsIcESaIcEEE
FN:58,61,_ZN19WebRTCTestFramework15closeConnectionEv
FN:63,66,_ZN19WebRTCTestFramework18getConnectionStateEv
FN:68,70,_ZN19WebRTCTestFramework16startAudioStreamEv
FN:72,74,_ZN19WebRTCTestFramework15stopAudioStreamEv
FN:76,85,_ZN19WebRTCTestFramework19measureAudioQualityEv
FN:87,93,_ZN19WebRTCTestFramework20validateAudioQualityERK19AudioQualityMetrics
FN:95,97,_ZN19WebRTCTestFramework13sendRadioDataERK9RadioData
FN:99,117,_ZN19WebRTCTestFramework16receiveRadioDataEv
FNDA:0,_ZN19WebRTCTestFramework17validateRadioDataERK9RadioData
FNDA:0,_ZN19WebRTCTestFramework9jsonToUDPERKNSt7__cxx1112basic_stringIcSt11char_traitsIcESaIcEEE
FNDA:0,_ZN19WebRTCTestFramework9udpToJSONERKNSt7__cxx1112basic_stringIcSt11char_traitsIcESaIcEEE
FNDA:0,_ZN19WebRTCTestFramework27validateProtocolTranslationERKNSt7__cxx1112basic_stringIcSt11char_traitsIcESaIcEEES7_
FNDA:0,_ZN19WebRTCTestFramework14measureLatencyEv
FNDA:0,_ZN19WebRTCTestFramework16measureBandwidthEv
FNDA:0,_ZN19WebRTCTestFramework19validatePerformanceEdd
FNDA:0,_ZN19WebRTCTestFramework20simulateNetworkErrorEv
FNDA:0,_ZN19WebRTCTestFramework18simulateAudioErrorEv
FNDA:0,_ZN19WebRTCTestFramework22simulateConnectionLossEv
FNDA:0,_ZN19WebRTCTestFramework17restoreConnectionEv
FNDA:0,_ZN19WebRTCTestFramework20generateTestCallsignB5cxx11Ev
FNDA:0,_ZN19WebRTCTestFramework21generateTestRadioDataEv
FNDA:0,_ZN19WebRTCTestFramework16generateTestJSONB5cxx11Ev
FNDA:0,_ZN19WebRTCTestFramework15generateTestUDPB5cxx11Ev
FNDA:0,_ZN19WebRTCTestFramework19createTestRadioDataEv
FNDA:0,_ZN19WebRTCTestFramework14createTestJSONB5cxx11Ev
FNDA:0,_ZN19WebRTCTestFramework13createTestUDPB5cxx11Ev
FNDA:0,_ZN19WebRTCTestFramework13logTestResultERKNSt7__cxx1112basic_stringIcSt11char_traitsIcESaIcEEEbS7_
FNDA:0,_ZN19WebRTCTestFramework15logAudioQualityERK19AudioQualityMetrics
FNDA:0,_ZN19WebRTCTestFramework14logPerformanceEdd
FNDA:20,_ZN19WebRTCTestFramework10initializeEv
FNDA:20,_ZN19WebRTCTestFramework7cleanupEv
FNDA:17,_ZN19WebRTCTestFramework9getConfigEv
FNDA:17,_ZN19WebRTCTestFramework19establishConnectionERKNSt7__cxx1112basic_stringIcSt11char_traitsIcESaIcEEE
FNDA:17,_ZN19WebRTCTestFramework15closeConnectionEv
FNDA:0,_ZN19WebRTCTestFramework18getConnectionStateEv
FNDA:3,_ZN19WebRTCTestFramework16startAudioStreamEv
FNDA:3,_ZN19WebRTCTestFramework15stopAudioStreamEv
FNDA:0,_ZN19WebRTCTestFramework19measureAudioQualityEv
FNDA:0,_ZN19WebRTCTestFramework20validateAudioQualityERK19AudioQualityMetrics
FNDA:0,_ZN19WebRTCTestFramework13sendRadioDataERK9RadioData
FNDA:0,_ZN19WebRTCTestFramework16receiveRadioDataEv
FNF:33
FNH:7
DA:33,20
DA:34,20
DA:35,20
DA:36,19
DA:38,20
DA:40,20
DA:41,20
DA:42,20
DA:43,19
DA:45,20
DA:47,17
DA:48,17
DA:51,17
DA:52,17
DA:54,17
DA:55,17
DA:56,17
DA:58,17
DA:59,17
DA:60,17
DA:61,17
DA:63,0
DA:64,0
DA:65,0
DA:66,0
DA:68,3
DA:69,3
DA:72,3
DA:74,3
DA:76,0
DA:78,0
DA:79,0
DA:80,0
DA:81,0
DA:82,0
DA:83,0
DA:84,0
DA:87,0
DA:88,0
DA:89,0
DA:90,0
DA:91,0
DA:92,0
DA:95,0
DA:96,0
DA:99,0
DA:100,0
DA:101,0
DA:102,0
DA:103,0
DA:104,0
DA:106,0
DA:107,0
DA:108,0
DA:109,0
DA:110,0
DA:111,0
DA:112,0
DA:113,0
DA:114,0
DA:116,0
DA:117,0
DA:119,0
DA:120,0
DA:121,0
DA:122,0
DA:125,0
DA:127,0
DA:130,0
DA:132,0
DA:135,0
DA:136,0
DA:139,0
DA:140,0
DA:143,0
DA:144,0
DA:147,0
DA:148,0
DA:151,0
DA:153,0
DA:155,0
DA:157,0
DA:159,0
DA:160,0
DA:161,0
DA:162,0
DA:164,0
DA:165,0
DA:166,0
DA:167,0
DA:169,0
DA:170,0
DA:171,0
DA:172,0
DA:173,0
DA:176,0
DA:177,0
DA:178,0
DA:179,0
DA:180,0
DA:181,0
DA:183,0
DA:184,0
DA:185,0
DA:186,0
DA:187,0
DA:188,0
DA:189,0
DA:190,0
DA:191,0
DA:193,0
DA:194,0
DA:196,0
DA:197,0
DA:200,0
DA:201,0
DA:205,0
DA:206,0
DA:209,0
DA:210,0
DA:213,0
DA:214,0
DA:217,0
DA:222,0
DA:224,0
DA:227,0
DA:229,0
DA:233,0
LF:128
LH:25
end_of_record
TN:
SF:/home/haaken/github-projects/fgcom-mumble/test/webrtc_api_tests/webrtc_test_framework.h
FN:152,155,_ZN24WebRTCConnectionTestBase5SetUpEv
FN:157,160,_ZN24WebRTCConnectionTestBase8TearDownEv
FN:192,196,_ZN23AudioProcessingTestBase5SetUpEv
FN:198,202,_ZN23AudioProcessingTestBase8TearDownEv
FN:216,218,_ZN27ProtocolTranslationTestBase5SetUpEv
FN:220,222,_ZN27ProtocolTranslationTestBase8TearDownEv
FN:240,243,_ZN19PerformanceTestBase5SetUpEv
FN:245,248,_ZN19PerformanceTestBase8TearDownEv
FNDA:12,_ZN24WebRTCConnectionTestBase5SetUpEv
FNDA:12,_ZN24WebRTCConnectionTestBase8TearDownEv
FNDA:3,_ZN23AudioProcessingTestBase5SetUpEv
FNDA:3,_ZN23AudioProcessingTestBase8TearDownEv
FNDA:2,_ZN27ProtocolTranslationTestBase5SetUpEv
FNDA:2,_ZN27ProtocolTranslationTestBase8TearDownEv
FNDA:2,_ZN19PerformanceTestBase5SetUpEv
FNDA:2,_ZN19PerformanceTestBase8TearDownEv
FNF:8
FNH:8
DA:152,12
DA:153,12
DA:154,12
DA:157,12
DA:158,12
DA:159,12
DA:160,12
DA:192,3
DA:193,3
DA:194,3
DA:195,3
DA:198,3
DA:199,3
DA:200,3
DA:201,3
DA:202,3
DA:216,2
DA:217,2
DA:218,2
DA:220,2
DA:221,2
DA:222,2
DA:240,2
DA:241,2
DA:242,2
DA:245,2
DA:246,2
DA:247,2
DA:248,2
LF:29
LH:29
end_of_record
TN:
SF:/usr/include/c++/13/bits/alloc_traits.h
FNF:0
FNH:0
DA:482,0
DA:517,0
DA:538,0
DA:542,0
DA:562,0
DA:574,0
DA:588,19
DA:948,0
DA:949,0
LF:9
LH:1
end_of_record
TN:
SF:/usr/include/c++/13/bits/allocator.h
FNF:0
FNH:0
DA:163,19
DA:168,19
DA:184,57
LF:3
LH:3
end_of_record
TN:
SF:/usr/include/c++/13/bits/basic_string.h
FN:3528,3541,_ZSt12__str_concatINSt7__cxx1112basic_stringIcSt11char_traitsIcESaIcEEEET_PKNS6_10value_typeENS6_9size_typeES9_SA_RKNS6_14allocator_typeE
FN:3607,3615,_ZStplIcSt11char_traitsIcESaIcEENSt7__cxx1112basic_stringIT_T0_T1_EERKS8_PKS5_
FN:3674,3676,_ZStplIcSt11char_traitsIcESaIcEENSt7__cxx1112basic_stringIT_T0_T1_EEPKS5_OS8_
FN:3727,3732,_ZSteqIcSt11char_traitsIcESaIcEEbRKNSt7__cxx1112basic_stringIT_T0_T1_EEPKS5_
FN:4162,4173,_ZNSt7__cxx119to_stringEi
FN:641,650,_ZNSt7__cxx1112basic_stringIcSt11char_traitsIcESaIcEEC2IS3_EEPKcRKS3_
FN:664,666,_ZNSt7__cxx1112basic_stringIcSt11char_traitsIcESaIcEEC2IS3_EEmcRKS3_
FNDA:19,_ZSt12__str_concatINSt7__cxx1112basic_stringIcSt11char_traitsIcESaIcEEEET_PKNS6_10value_typeENS6_9size_typeES9_SA_RKNS6_14allocator_typeE
FNDA:19,_ZStplIcSt11char_traitsIcESaIcEENSt7__cxx1112basic_stringIT_T0_T1_EERKS8_PKS5_
FNDA:0,_ZStplIcSt11char_traitsIcESaIcEENSt7__cxx1112basic_stringIT_T0_T1_EEPKS5_OS8_
FNDA:0,_ZSteqIcSt11char_traitsIcESaIcEEbRKNSt7__cxx1112basic_stringIT_T0_T1_EEPKS5_
FNDA:0,_ZNSt7__cxx119to_stringEi
FNDA:19,_ZNSt7__cxx1112basic_stringIcSt11char_traitsIcESaIcEEC2IS3_EEPKcRKS3_
FNDA:0,_ZNSt7__cxx1112basic_stringIcSt11char_traitsIcESaIcEEC2IS3_EEmcRKS3_
FNF:7
FNH:3
DA:355,0
DA:641,19
DA:642,19
DA:645,19
DA:646,0
DA:648,19
DA:649,19
DA:650,19
DA:664,0
DA:665,0
DA:666,0
DA:3528,19
DA:3536,19
DA:3537,19
DA:3538,19
DA:3539,19
DA:3540,19
DA:3541,0
DA:3607,19
DA:3614,38
DA:3674,0
DA:3676,0
DA:3727,0
DA:3730,0
DA:3731,0
DA:4162,0
DA:4167,0
DA:4168,0
DA:4169,0
DA:4170,0
DA:4171,0
DA:4172,0
LF:32
LH:14
end_of_record
TN:
SF:/usr/include/c++/13/bits/basic_string.tcc
FN:221,252,_ZNSt7__cxx1112basic_stringIcSt11char_traitsIcESaIcEE12_M_constructIPKcEEvT_S8_St20forward_iterator_tag
FN:221,252,_ZNSt7__cxx1112basic_stringIcSt11char_traitsIcESaIcEE12_M_constructIPcEEvT_S7_St20forward_iterator_tag
FN:239,239,_ZZNSt7__cxx1112basic_stringIcSt11char_traitsIcESaIcEE12_M_constructIPKcEEvT_S8_St20forward_iterator_tagEN6_GuardC2EPS4_
FN:239,239,_ZZNSt7__cxx1112basic_stringIcSt11char_traitsIcESaIcEE12_M_constructIPcEEvT_S7_St20forward_iterator_tagEN6_GuardC2EPS4_
FN:242,242,_ZZNSt7__cxx1112basic_stringIcSt11char_traitsIcESaIcEE12_M_constructIPKcEEvT_S8_St20forward_iterator_tagEN6_GuardD2Ev
FN:242,242,_ZZNSt7__cxx1112basic_stringIcSt11char_traitsIcESaIcEE12_M_constructIPcEEvT_S7_St20forward_iterator_tagEN6_GuardD2Ev
FNDA:19,_ZNSt7__cxx1112basic_stringIcSt11char_traitsIcESaIcEE12_M_constructIPKcEEvT_S8_St20forward_iterator_tag
FNDA:0,_ZNSt7__cxx1112basic_stringIcSt11char_traitsIcESaIcEE12_M_constructIPcEEvT_S7_St20forward_iterator_tag
FNDA:19,_ZZNSt7__cxx1112basic_stringIcSt11char_traitsIcESaIcEE12_M_constructIPKcEEvT_S8_St20forward_iterator_tagEN6_GuardC2EPS4_
FNDA:0,_ZZNSt7__cxx1112basic_stringIcSt11char_traitsIcESaIcEE12_M_constructIPcEEvT_S7_St20forward_iterator_tagEN6_GuardC2EPS4_
FNDA:19,_ZZNSt7__cxx1112basic_stringIcSt11char_traitsIcESaIcEE12_M_constructIPKcEEvT_S8_St20forward_iterator_tagEN6_GuardD2Ev
FNDA:0,_ZZNSt7__cxx1112basic_stringIcSt11char_traitsIcESaIcEE12_M_constructIPcEEvT_S7_St20forward_iterator_tagEN6_GuardD2Ev
FNF:6
FNH:3
DA:221,19
DA:225,19
DA:227,19
DA:229,19
DA:230,19
DA:239,19
DA:242,19
DA:245,19
DA:247,19
DA:249,19
DA:251,19
DA:252,19
LF:12
LH:12
end_of_record
TN:
SF:/usr/include/c++/13/bits/char_traits.h
FN:136,137,_ZN9__gnu_cxx11char_traitsIcE2eqERKcS3_
FN:199,206,_ZN9__gnu_cxx11char_traitsIcE6lengthEPKc
FN:366,371,_ZNSt11char_traitsIcE2ltERKcS2_
FN:374,390,_ZNSt11char_traitsIcE7compareEPKcS2_m
FN:393,400,_ZNSt11char_traitsIcE6lengthEPKc
FN:427,436,_ZNSt11char_traitsIcE4copyEPcPKcm
FNDA:0,_ZN9__gnu_cxx11char_traitsIcE2eqERKcS3_
FNDA:0,_ZN9__gnu_cxx11char_traitsIcE6lengthEPKc
FNDA:0,_ZNSt11char_traitsIcE2ltERKcS2_
FNDA:0,_ZNSt11char_traitsIcE7compareEPKcS2_m
FNDA:38,_ZNSt11char_traitsIcE6lengthEPKc
FNDA:0,_ZNSt11char_traitsIcE4copyEPcPKcm
FNF:6
FNH:1
DA:136,0
DA:137,0
DA:199,0
DA:202,0
DA:203,0
DA:204,0
DA:205,0
DA:366,0
DA:369,0
DA:370,0
DA:374,0
DA:376,0
DA:377,0
DA:379,0
DA:381,0
DA:382,0
DA:383,0
DA:384,0
DA:385,0
DA:386,0
DA:389,0
DA:393,38
DA:396,38
DA:397,0
DA:399,38
DA:427,0
DA:429,0
DA:430,0
DA:435,0
LF:29
LH:3
end_of_record
TN:
SF:/usr/include/c++/13/bits/charconv.h
FN:55,74,_ZNSt8__detail14__to_chars_lenIjEEjT_i
FN:81,110,_ZNSt8__detail18__to_chars_10_implIjEEvPcjT_
FNDA:0,_ZNSt8__detail14__to_chars_lenIjEEjT_i
FNDA:0,_ZNSt8__detail18__to_chars_10_implIjEEvPcjT_
FNF:2
FNH:0
DA:55,0
DA:61,0
DA:62,0
DA:63,0
DA:64,0
DA:67,0
DA:68,0
DA:69,0
DA:70,0
DA:71,0
DA:72,0
DA:81,0
DA:87,0
DA:93,0
DA:94,0
DA:96,0
DA:97,0
DA:98,0
DA:99,0
DA:100,0
DA:102,0
DA:104,0
DA:105,0
DA:106,0
DA:109,0
DA:110,0
LF:26
LH:0
end_of_record
TN:
SF:/usr/include/c++/13/bits/chrono.h
FN:1141,1143,_ZNSt6chronomiINS_3_V212system_clockENS_8durationIlSt5ratioILl1ELl1000000000EEEES6_EENSt11common_typeIJT0_T1_EE4typeERKNS_10time_pointIT_S8_EERKNSC_ISD_S9_EE
FN:208,213,_ZNSt6chrono20__duration_cast_implINS_8durationIlSt5ratioILl1ELl1000EEEES2_ILl1ELl1000000EElLb1ELb0EE6__castIlS2_ILl1ELl1000000000EEEES4_RKNS1_IT_T0_EE
FN:273,291,_ZNSt6chrono13duration_castINS_8durationIlSt5ratioILl1ELl1000EEEElS2_ILl1ELl1000000000EEEENSt9enable_ifIXsrNS_13__is_durationIT_EE5valueES8_E4typeERKNS1_IT0_T1_EE
FN:498,499,_ZNSt6chrono15duration_valuesIlE4zeroEv
FN:573,574,_ZNSt6chrono8durationIlSt5ratioILl1ELl1000000000EEEC1IlvEERKT_
FN:573,574,_ZNSt6chrono8durationIlSt5ratioILl1ELl1000EEEC2IlvEERKT_
FN:589,590,_ZNKSt6chrono8durationIlSt5ratioILl1ELl1000000000EEE5countEv
FN:589,590,_ZNKSt6chrono8durationIlSt5ratioILl1ELl1000EEE5countEv
FN:673,674,_ZNSt6chrono8durationIlSt5ratioILl1ELl1000000000EEE4zeroEv
FN:710,717,_ZNSt6chronomiIlSt5ratioILl1ELl1000000000EElS2_EENSt11common_typeIJNS_8durationIT_T0_EENS4_IT1_T2_EEEE4typeERKS7_RKSA_
FN:933,934,_ZNSt6chrono10time_pointINS_3_V212system_clockENS_8durationIlSt5ratioILl1ELl1000000000EEEEEC2Ev
FN:949,950,_ZNKSt6chrono10time_pointINS_3_V212system_clockENS_8durationIlSt5ratioILl1ELl1000000000EEEEE16time_since_epochEv
FNDA:19,_ZNSt6chronomiINS_3_V212system_clockENS_8durationIlSt5ratioILl1ELl1000000000EEEES6_EENSt11common_typeIJT0_T1_EE4typeERKNS_10time_pointIT_S8_EERKNSC_ISD_S9_EE
FNDA:19,_ZNSt6chrono20__duration_cast_implINS_8durationIlSt5ratioILl1ELl1000EEEES2_ILl1ELl1000000EElLb1ELb0EE6__castIlS2_ILl1ELl1000000000EEEES4_RKNS1_IT_T0_EE
FNDA:19,_ZNSt6chrono13duration_castINS_8durationIlSt5ratioILl1ELl1000EEEElS2_ILl1ELl1000000000EEEENSt9enable_ifIXsrNS_13__is_durationIT_EE5valueES8_E4typeERKNS1_IT0_T1_EE
FNDA:1,_ZNSt6chrono15duration_valuesIlE4zeroEv
FNDA:20,_ZNSt6chrono8durationIlSt5ratioILl1ELl1000000000EEEC1IlvEERKT_
FNDA:19,_ZNSt6chrono8durationIlSt5ratioILl1ELl1000EEEC2IlvEERKT_
FNDA:76,_ZNKSt6chrono8durationIlSt5ratioILl1ELl1000000000EEE5countEv
FNDA:38,_ZNKSt6chrono8durationIlSt5ratioILl1ELl1000EEE5countEv
FNDA:1,_ZNSt6chrono8durationIlSt5ratioILl1ELl1000000000EEE4zeroEv
FNDA:19,_ZNSt6chronomiIlSt5ratioILl1ELl1000000000EElS2_EENSt11common_typeIJNS_8durationIT_T0_EENS4_IT1_T2_EEEE4typeERKS7_RKSA_
FNDA:1,_ZNSt6chrono10time_pointINS_3_V212system_clockENS_8durationIlSt5ratioILl1ELl1000000000EEEEEC2Ev
FNDA:57,_ZNKSt6chrono10time_pointINS_3_V212system_clockENS_8durationIlSt5ratioILl1ELl1000000000EEEEE16time_since_epochEv
FNF:12
FNH:12
DA:208,19
DA:211,38
DA:212,19
DA:273,19
DA:287,19
DA:498,1
DA:499,1
DA:573,39
DA:574,39
DA:589,114
DA:590,114
DA:673,1
DA:674,1
DA:710,19
DA:716,19
DA:933,1
DA:934,1
DA:949,57
DA:950,57
DA:1141,19
DA:1143,19
LF:21
LH:21
end_of_record
TN:
SF:/usr/include/c++/13/bits/move.h
FN:51,52,_ZSt11__addressofI12RadioChannelEPT_RS1_
FN:70,71,_ZSt7forwardI12RadioChannelEOT_RNSt16remove_referenceIS1_E4typeE
FN:70,71,_ZSt7forwardIRK12RadioChannelEOT_RNSt16remove_referenceIS3_E4typeE
FN:97,98,_ZSt4moveIR12RadioChannelEONSt16remove_referenceIT_E4typeEOS3_
FN:97,98,_ZSt4moveIRNSt7__cxx1112basic_stringIcSt11char_traitsIcESaIcEEEEONSt16remove_referenceIT_E4typeEOS8_
FN:97,98,_ZSt4moveIRPNSt7__cxx1112basic_stringIcSt11char_traitsIcESaIcEEEEONSt16remove_referenceIT_E4typeEOS9_
FN:97,98,_ZSt4moveIRPNSt7__cxx1118basic_stringstreamIcSt11char_traitsIcESaIcEEEEONSt16remove_referenceIT_E4typeEOS9_
FN:97,98,_ZSt4moveIRSaIcEEONSt16remove_referenceIT_E4typeEOS3_
FN:97,98,_ZSt4moveIRZ24registerWebRTCTestSuitesvEUlvE0_EONSt16remove_referenceIT_E4typeEOS3_
FN:97,98,_ZSt4moveIRZ24registerWebRTCTestSuitesvEUlvE10_EONSt16remove_referenceIT_E4typeEOS3_
FN:97,98,_ZSt4moveIRZ24registerWebRTCTestSuitesvEUlvE11_EONSt16remove_referenceIT_E4typeEOS3_
FN:97,98,_ZSt4moveIRZ24registerWebRTCTestSuitesvEUlvE12_EONSt16remove_referenceIT_E4typeEOS3_
FN:97,98,_ZSt4moveIRZ24registerWebRTCTestSuitesvEUlvE13_EONSt16remove_referenceIT_E4typeEOS3_
FN:97,98,_ZSt4moveIRZ24registerWebRTCTestSuitesvEUlvE14_EONSt16remove_referenceIT_E4typeEOS3_
FN:97,98,_ZSt4moveIRZ24registerWebRTCTestSuitesvEUlvE15_EONSt16remove_referenceIT_E4typeEOS3_
FN:97,98,_ZSt4moveIRZ24registerWebRTCTestSuitesvEUlvE16_EONSt16remove_referenceIT_E4typeEOS3_
FN:97,98,_ZSt4moveIRZ24registerWebRTCTestSuitesvEUlvE17_EONSt16remove_referenceIT_E4typeEOS3_
FN:97,98,_ZSt4moveIRZ24registerWebRTCTestSuitesvEUlvE1_EONSt16remove_referenceIT_E4typeEOS3_
FN:97,98,_ZSt4moveIRZ24registerWebRTCTestSuitesvEUlvE2_EONSt16remove_referenceIT_E4typeEOS3_
FN:97,98,_ZSt4moveIRZ24registerWebRTCTestSuitesvEUlvE3_EONSt16remove_referenceIT_E4typeEOS3_
FN:97,98,_ZSt4moveIRZ24registerWebRTCTestSuitesvEUlvE4_EONSt16remove_referenceIT_E4typeEOS3_
FN:97,98,_ZSt4moveIRZ24registerWebRTCTestSuitesvEUlvE5_EONSt16remove_referenceIT_E4typeEOS3_
FN:97,98,_ZSt4moveIRZ24registerWebRTCTestSuitesvEUlvE6_EONSt16remove_referenceIT_E4typeEOS3_
FN:97,98,_ZSt4moveIRZ24registerWebRTCTestSuitesvEUlvE7_EONSt16remove_referenceIT_E4typeEOS3_
FN:97,98,_ZSt4moveIRZ24registerWebRTCTestSuitesvEUlvE8_EONSt16remove_referenceIT_E4typeEOS3_
FN:97,98,_ZSt4moveIRZ24registerWebRTCTestSuitesvEUlvE9_EONSt16remove_referenceIT_E4typeEOS3_
FN:97,98,_ZSt4moveIRZ24registerWebRTCTestSuitesvEUlvE_EONSt16remove_referenceIT_E4typeEOS3_
FNDA:0,_ZSt11__addressofI12RadioChannelEPT_RS1_
FNDA:0,_ZSt7forwardI12RadioChannelEOT_RNSt16remove_referenceIS1_E4typeE
FNDA:0,_ZSt7forwardIRK12RadioChannelEOT_RNSt16remove_referenceIS3_E4typeE
FNDA:0,_ZSt4moveIR12RadioChannelEONSt16remove_referenceIT_E4typeEOS3_
FNDA:0,_ZSt4moveIRNSt7__cxx1112basic_stringIcSt11char_traitsIcESaIcEEEEONSt16remove_referenceIT_E4typeEOS8_
FNDA:0,_ZSt4moveIRPNSt7__cxx1112basic_stringIcSt11char_traitsIcESaIcEEEEONSt16remove_referenceIT_E4typeEOS9_
FNDA:0,_ZSt4moveIRPNSt7__cxx1118basic_stringstreamIcSt11char_traitsIcESaIcEEEEONSt16remove_referenceIT_E4typeEOS9_
FNDA:0,_ZSt4moveIRSaIcEEONSt16remove_referenceIT_E4typeEOS3_
FNDA:2,_ZSt4moveIRZ24registerWebRTCTestSuitesvEUlvE0_EONSt16remove_referenceIT_E4typeEOS3_
FNDA:2,_ZSt4moveIRZ24registerWebRTCTestSuitesvEUlvE10_EONSt16remove_referenceIT_E4typeEOS3_
FNDA:2,_ZSt4moveIRZ24registerWebRTCTestSuitesvEUlvE11_EONSt16remove_referenceIT_E4typeEOS3_
FNDA:2,_ZSt4moveIRZ24registerWebRTCTestSuitesvEUlvE12_EONSt16remove_referenceIT_E4typeEOS3_
FNDA:2,_ZSt4moveIRZ24registerWebRTCTestSuitesvEUlvE13_EONSt16remove_referenceIT_E4typeEOS3_
FNDA:2,_ZSt4moveIRZ24registerWebRTCTestSuitesvEUlvE14_EONSt16remove_referenceIT_E4typeEOS3_
FNDA:2,_ZSt4moveIRZ24registerWebRTCTestSuitesvEUlvE15_EONSt16remove_referenceIT_E4typeEOS3_
FNDA:2,_ZSt4moveIRZ24registerWebRTCTestSuitesvEUlvE16_EONSt16remove_referenceIT_E4typeEOS3_
FNDA:2,_ZSt4moveIRZ24registerWebRTCTestSuitesvEUlvE17_EONSt16remove_referenceIT_E4typeEOS3_
FNDA:2,_ZSt4moveIRZ24registerWebRTCTestSuitesvEUlvE1_EONSt16remove_referenceIT_E4typeEOS3_
FNDA:2,_ZSt4moveIRZ24registerWebRTCTestSuitesvEUlvE2_EONSt16remove_referenceIT_E4typeEOS3_
FNDA:2,_ZSt4moveIRZ24registerWebRTCTestSuitesvEUlvE3_EONSt16remove_referenceIT_E4typeEOS3_
FNDA:2,_ZSt4moveIRZ24registerWebRTCTestSuitesvEUlvE4_EONSt16remove_referenceIT_E4typeEOS3_
FNDA:2,_ZSt4moveIRZ24registerWebRTCTestSuitesvEUlvE5_EONSt16remove_referenceIT_E4typeEOS3_
FNDA:2,_ZSt4moveIRZ24registerWebRTCTestSuitesvEUlvE6_EONSt16remove_referenceIT_E4typeEOS3_
FNDA:2,_ZSt4moveIRZ24registerWebRTCTestSuitesvEUlvE7_EONSt16remove_referenceIT_E4typeEOS3_
FNDA:2,_ZSt4moveIRZ24registerWebRTCTestSuitesvEUlvE8_EONSt16remove_referenceIT_E4typeEOS3_
FNDA:2,_ZSt4moveIRZ24registerWebRTCTestSuitesvEUlvE9_EONSt16remove_referenceIT_E4typeEOS3_
FNDA:2,_ZSt4moveIRZ24registerWebRTCTestSuitesvEUlvE_EONSt16remove_referenceIT_E4typeEOS3_
FNF:27
FNH:19
DA:51,0
DA:52,0
DA:70,0
DA:71,0
DA:97,38
DA:98,38
LF:6
LH:2
end_of_record
TN:
SF:/usr/include/c++/13/bits/new_allocator.h
FN:104,104,_ZNSt15__new_allocatorI12RadioChannelED2Ev
FN:104,104,_ZNSt15__new_allocatorIcED2Ev
FN:126,152,_ZNSt15__new_allocatorI12RadioChannelE8allocateEmPKv
FN:156,173,_ZNSt15__new_allocatorI12RadioChannelE10deallocateEPS0_m
FNDA:0,_ZNSt15__new_allocatorI12RadioChannelED2Ev
FNDA:57,_ZNSt15__new_allocatorIcED2Ev
FNDA:0,_ZNSt15__new_allocatorI12RadioChannelE8allocateEmPKv
FNDA:0,_ZNSt15__new_allocatorI12RadioChannelE10deallocateEPS0_m
FNF:4
FNH:1
DA:88,19
DA:92,19
DA:104,57
DA:126,0
DA:134,0
DA:138,0
DA:139,0
DA:140,0
DA:151,0
DA:156,0
DA:172,0
DA:183,0
DA:191,0
DA:198,0
DA:233,0
LF:15
LH:3
end_of_record
TN:
SF:/usr/include/c++/13/bits/random.h
FN:139,145,_ZNSt8__detail4_ModImLm4294967296ELm1ELm0ELb1ELb1EE6__calcEm
FN:139,145,_ZNSt8__detail4_ModImLm624ELm1ELm0ELb1ELb1EE6__calcEm
FN:150,160,_ZNSt8__detail5__modImLm4294967296ELm1ELm0EEET_S1_
FN:150,160,_ZNSt8__detail5__modImLm624ELm1ELm0EEET_S1_
FN:1658,1658,_ZNSt13random_deviceC2Ev
FN:1663,1664,_ZNSt13random_deviceD2Ev
FN:1679,1680,_ZNSt13random_deviceclEv
FN:545,546,_ZNSt23mersenne_twister_engineImLm32ELm624ELm397ELm31ELm2567483615ELm11ELm4294967295ELm7ELm2636928640ELm15ELm4022730752ELm18ELm1812433253EEC2Em
FNDA:0,_ZNSt8__detail4_ModImLm4294967296ELm1ELm0ELb1ELb1EE6__calcEm
FNDA:0,_ZNSt8__detail4_ModImLm624ELm1ELm0ELb1ELb1EE6__calcEm
FNDA:0,_ZNSt8__detail5__modImLm4294967296ELm1ELm0EEET_S1_
FNDA:0,_ZNSt8__detail5__modImLm624ELm1ELm0EEET_S1_
FNDA:0,_ZNSt13random_deviceC2Ev
FNDA:0,_ZNSt13random_deviceD2Ev
FNDA:0,_ZNSt13random_deviceclEv
FNDA:0,_ZNSt23mersenne_twister_engineImLm32ELm624ELm397ELm31ELm2567483615ELm11ELm4294967295ELm7ELm2636928640ELm15ELm4022730752ELm18ELm1812433253EEC2Em
FNF:8
FNH:0
DA:139,0
DA:141,0
DA:143,0
DA:144,0
DA:150,0
DA:157,0
DA:158,0
DA:545,0
DA:546,0
DA:1658,0
DA:1663,0
DA:1664,0
DA:1679,0
DA:1680,0
LF:14
LH:0
end_of_record
TN:
SF:/usr/include/c++/13/bits/random.tcc
FN:326,343,_ZNSt23mersenne_twister_engineImLm32ELm624ELm397ELm31ELm2567483615ELm11ELm4294967295ELm7ELm2636928640ELm15ELm4022730752ELm18ELm1812433253EE4seedEm
FN:397,425,_ZNSt23mersenne_twister_engineImLm32ELm624ELm397ELm31ELm2567483615ELm11ELm4294967295ELm7ELm2636928640ELm15ELm4022730752ELm18ELm1812433253EE11_M_gen_randEv
FN:453,469,_ZNSt23mersenne_twister_engineImLm32ELm624ELm397ELm31ELm2567483615ELm11ELm4294967295ELm7ELm2636928640ELm15ELm4022730752ELm18ELm1812433253EEclEv
FNDA:0,_ZNSt23mersenne_twister_engineImLm32ELm624ELm397ELm31ELm2567483615ELm11ELm4294967295ELm7ELm2636928640ELm15ELm4022730752ELm18ELm1812433253EE4seedEm
FNDA:0,_ZNSt23mersenne_twister_engineImLm32ELm624ELm397ELm31ELm2567483615ELm11ELm4294967295ELm7ELm2636928640ELm15ELm4022730752ELm18ELm1812433253EE11_M_gen_randEv
FNDA:0,_ZNSt23mersenne_twister_engineImLm32ELm624ELm397ELm31ELm2567483615ELm11ELm4294967295ELm7ELm2636928640ELm15ELm4022730752ELm18ELm1812433253EEclEv
FNF:3
FNH:0
DA:326,0
DA:330,0
DA:331,0
DA:333,0
DA:335,0
DA:336,0
DA:337,0
DA:338,0
DA:339,0
DA:340,0
DA:342,0
DA:343,0
DA:397,0
DA:401,0
DA:402,0
DA:404,0
DA:406,0
DA:407,0
DA:408,0
DA:409,0
DA:412,0
DA:414,0
DA:415,0
DA:416,0
DA:417,0
DA:420,0
DA:421,0
DA:422,0
DA:423,0
DA:424,0
DA:425,0
DA:453,0
DA:458,0
DA:459,0
DA:462,0
DA:463,0
DA:464,0
DA:465,0
DA:466,0
DA:468,0
LF:40
LH:0
end_of_record
TN:
SF:/usr/include/c++/13/bits/std_mutex.h
FN:111,118,_ZNSt5mutex4lockEv
FN:129,133,_ZNSt5mutex6unlockEv
FN:248,249,_ZNSt10lock_guardISt5mutexEC2ERS0_
FN:254,255,_ZNSt10lock_guardISt5mutexED2Ev
FNDA:74,_ZNSt5mutex4lockEv
FNDA:74,_ZNSt5mutex6unlockEv
FNDA:74,_ZNSt10lock_guardISt5mutexEC2ERS0_
FNDA:74,_ZNSt10lock_guardISt5mutexED2Ev
FNF:4
FNH:4
DA:111,74
DA:113,74
DA:116,74
DA:117,0
DA:118,74
DA:129,74
DA:132,74
DA:133,74
DA:248,74
DA:249,74
DA:254,74
DA:255,74
LF:12
LH:11
end_of_record
TN:
SF:/usr/include/c++/13/bits/stl_algobase.h
FN:233,241,_ZSt3minImERKT_S2_S2_
FN:257,265,_ZSt3maxImERKT_S2_S2_
FN:316,318,_ZSt12__niter_baseIP12RadioChannelET_S2_
FNDA:0,_ZSt3minImERKT_S2_S2_
FNDA:0,_ZSt3maxImERKT_S2_S2_
FNDA:0,_ZSt12__niter_baseIP12RadioChannelET_S2_
FNF:3
FNH:0
DA:233,0
DA:238,0
DA:239,0
DA:240,0
DA:257,0
DA:262,0
DA:263,0
DA:264,0
DA:316,0
DA:318,0
LF:10
LH:0
end_of_record
TN:
SF:/usr/include/c++/13/bits/stl_construct.h
FN:146,153,_ZSt8_DestroyI12RadioChannelEvPT_
FN:160,164,_ZNSt12_Destroy_auxILb0EE9__destroyIP12RadioChannelEEvT_S4_
FN:182,197,_ZSt8_DestroyIP12RadioChannelEvT_S2_
FNDA:0,_ZSt8_DestroyI12RadioChannelEvPT_
FNDA:0,_ZNSt12_Destroy_auxILb0EE9__destroyIP12RadioChannelEEvT_S4_
FNDA:0,_ZSt8_DestroyIP12RadioChannelEvT_S2_
FNF:3
FNH:0
DA:146,0
DA:151,0
DA:153,0
DA:160,0
DA:162,0
DA:163,0
DA:164,0
DA:182,0
DA:196,0
DA:197,0
LF:10
LH:0
end_of_record
TN:
SF:/usr/include/c++/13/bits/stl_iterator.h
FN:1076,1077,_ZN9__gnu_cxx17__normal_iteratorIP12RadioChannelSt6vectorIS1_SaIS1_EEEC2ERKS2_
FN:1162,1163,_ZNK9__gnu_cxx17__normal_iteratorIP12RadioChannelSt6vectorIS1_SaIS1_EEE4baseEv
FN:1334,1337,_ZN9__gnu_cxxmiIP12RadioChannelSt6vectorIS1_SaIS1_EEEENS_17__normal_iteratorIT_T0_E15difference_typeERKS9_SC_
FNDA:0,_ZN9__gnu_cxx17__normal_iteratorIP12RadioChannelSt6vectorIS1_SaIS1_EEEC2ERKS2_
FNDA:0,_ZNK9__gnu_cxx17__normal_iteratorIP12RadioChannelSt6vectorIS1_SaIS1_EEE4baseEv
FNDA:0,_ZN9__gnu_cxxmiIP12RadioChannelSt6vectorIS1_SaIS1_EEEENS_17__normal_iteratorIT_T0_E15difference_typeERKS9_SC_
FNF:3
FNH:0
DA:1076,0
DA:1077,0
DA:1162,0
DA:1163,0
DA:1334,0
DA:1337,0
LF:6
LH:0
end_of_record
TN:
SF:/usr/include/c++/13/bits/stl_iterator_base_funcs.h
FNF:0
FNH:0
DA:106,19
DA:151,38
DA:152,38
LF:3
LH:3
end_of_record
TN:
SF:/usr/include/c++/13/bits/stl_iterator_base_types.h
FNF:0
FNH:0
DA:240,19
LF:1
LH:1
end_of_record
TN:
SF:/usr/include/c++/13/bits/stl_uninitialized.h
FN:1069,1079,_ZSt19__relocate_object_aI12RadioChannelS0_SaIS0_EEvPT_PT0_RT1_
FN:1091,1108,_ZSt14__relocate_a_1IP12RadioChannelS1_SaIS0_EET0_T_S4_S3_RT1_
FN:1141,1150,_ZSt12__relocate_aIP12RadioChannelS1_SaIS0_EET0_T_S4_S3_RT1_
FNDA:0,_ZSt19__relocate_object_aI12RadioChannelS0_SaIS0_EEvPT_PT0_RT1_
FNDA:0,_ZSt14__relocate_a_1IP12RadioChannelS1_SaIS0_EET0_T_S4_S3_RT1_
FNDA:0,_ZSt12__relocate_aIP12RadioChannelS1_SaIS0_EET0_T_S4_S3_RT1_
FNF:3
FNH:0
DA:1069,0
DA:1077,0
DA:1078,0
DA:1079,0
DA:1091,0
DA:1103,0
DA:1104,0
DA:1105,0
DA:1107,0
DA:1141,0
DA:1147,0
DA:1149,0
LF:12
LH:0
end_of_record
TN:
SF:/usr/include/c++/13/bits/stl_vector.h
FN:1281,1293,_ZNSt6vectorI12RadioChannelSaIS0_EE9push_backERKS0_
FN:137,143,_ZNSt12_Vector_baseI12RadioChannelSaIS0_EE12_Vector_implC2Ev
FN:1896,1903,_ZNKSt6vectorI12RadioChannelSaIS0_EE12_M_check_lenEmPKc
FN:1916,1925,_ZNSt6vectorI12RadioChannelSaIS0_EE11_S_max_sizeERKS1_
FN:301,302,_ZNSt12_Vector_baseI12RadioChannelSaIS0_EE19_M_get_Tp_allocatorEv
FN:306,307,_ZNKSt12_Vector_baseI12RadioChannelSaIS0_EE19_M_get_Tp_allocatorEv
FN:315,315,_ZNSt12_Vector_baseI12RadioChannelSaIS0_EEC2Ev
FN:367,371,_ZNSt12_Vector_baseI12RadioChannelSaIS0_EED2Ev
FN:378,382,_ZNSt12_Vector_baseI12RadioChannelSaIS0_EE11_M_allocateEm
FN:386,391,_ZNSt12_Vector_baseI12RadioChannelSaIS0_EE13_M_deallocateEPS0_m
FN:504,514,_ZNSt6vectorI12RadioChannelSaIS0_EE11_S_relocateEPS0_S3_S3_RS1_
FN:531,531,_ZNSt6vectorI12RadioChannelSaIS0_EEC2Ev
FN:733,738,_ZNSt6vectorI12RadioChannelSaIS0_EED2Ev
FN:873,874,_ZNSt6vectorI12RadioChannelSaIS0_EE5beginEv
FN:893,894,_ZNSt6vectorI12RadioChannelSaIS0_EE3endEv
FN:99,101,_ZNSt12_Vector_baseI12RadioChannelSaIS0_EE17_Vector_impl_dataC2Ev
FN:992,993,_ZNKSt6vectorI12RadioChannelSaIS0_EE4sizeEv
FN:998,999,_ZNKSt6vectorI12RadioChannelSaIS0_EE8max_sizeEv
FNDA:0,_ZNSt6vectorI12RadioChannelSaIS0_EE9push_backERKS0_
FNDA:0,_ZNSt12_Vector_baseI12RadioChannelSaIS0_EE12_Vector_implC2Ev
FNDA:0,_ZNKSt6vectorI12RadioChannelSaIS0_EE12_M_check_lenEmPKc
FNDA:0,_ZNSt6vectorI12RadioChannelSaIS0_EE11_S_max_sizeERKS1_
FNDA:0,_ZNSt12_Vector_baseI12RadioChannelSaIS0_EE19_M_get_Tp_allocatorEv
FNDA:0,_ZNKSt12_Vector_baseI12RadioChannelSaIS0_EE19_M_get_Tp_allocatorEv
FNDA:0,_ZNSt12_Vector_baseI12RadioChannelSaIS0_EEC2Ev
FNDA:0,_ZNSt12_Vector_baseI12RadioChannelSaIS0_EED2Ev
FNDA:0,_ZNSt12_Vector_baseI12RadioChannelSaIS0_EE11_M_allocateEm
FNDA:0,_ZNSt12_Vector_baseI12RadioChannelSaIS0_EE13_M_deallocateEPS0_m
FNDA:0,_ZNSt6vectorI12RadioChannelSaIS0_EE11_S_relocateEPS0_S3_S3_RS1_
FNDA:0,_ZNSt6vectorI12RadioChannelSaIS0_EEC2Ev
FNDA:0,_ZNSt6vectorI12RadioChannelSaIS0_EED2Ev
FNDA:0,_ZNSt6vectorI12RadioChannelSaIS0_EE5beginEv
FNDA:0,_ZNSt6vectorI12RadioChannelSaIS0_EE3endEv
FNDA:0,_ZNSt12_Vector_baseI12RadioChannelSaIS0_EE17_Vector_impl_dataC2Ev
FNDA:0,_ZNKSt6vectorI12RadioChannelSaIS0_EE4sizeEv
FNDA:0,_ZNKSt6vectorI12RadioChannelSaIS0_EE8max_sizeEv
FNF:18
FNH:0
DA:99,0
DA:100,0
DA:101,0
DA:137,0
DA:142,0
DA:143,0
DA:301,0
DA:302,0
DA:306,0
DA:307,0
DA:315,0
DA:367,0
DA:369,0
DA:370,0
DA:371,0
DA:378,0
DA:381,0
DA:386,0
DA:389,0
DA:390,0
DA:391,0
DA:504,0
DA:509,0
DA:531,0
DA:733,0
DA:735,0
DA:736,0
DA:738,0
DA:873,0
DA:874,0
DA:893,0
DA:894,0
DA:992,0
DA:993,0
DA:998,0
DA:999,0
DA:1281,0
DA:1283,0
DA:1286,0
DA:1288,0
DA:1292,0
DA:1293,0
DA:1896,0
DA:1898,0
DA:1899,0
DA:1901,0
DA:1902,0
DA:1916,0
DA:1921,0
DA:1923,0
DA:1924,0
LF:51
LH:0
end_of_record
TN:
SF:/usr/include/c++/13/bits/uniform_int_dist.h
FN:104,109,_ZNSt24uniform_int_distributionIiE10param_typeC2Eii
FN:112,113,_ZNKSt24uniform_int_distributionIiE10param_type1aEv
FN:116,117,_ZNKSt24uniform_int_distributionIiE10param_type1bEv
FN:142,146,_ZNSt24uniform_int_distributionIiEC2Eii
FN:203,204,_ZNSt24uniform_int_distributionIiEclISt23mersenne_twister_engineImLm32ELm624ELm397ELm31ELm2567483615ELm11ELm4294967295ELm7ELm2636928640ELm15ELm4022730752ELm18ELm1812433253EEEEiRT_
FN:257,281,_ZNSt24uniform_int_distributionIiE5_S_ndImSt23mersenne_twister_engineImLm32ELm624ELm397ELm31ELm2567483615ELm11ELm4294967295ELm7ELm2636928640ELm15ELm4022730752ELm18ELm1812433253EEjEET1_RT0_S4_
FN:287,373,_ZNSt24uniform_int_distributionIiEclISt23mersenne_twister_engineImLm32ELm624ELm397ELm31ELm2567483615ELm11ELm4294967295ELm7ELm2636928640ELm15ELm4022730752ELm18ELm1812433253EEEEiRT_RKNS0_10param_typeE
FNDA:0,_ZNSt24uniform_int_distributionIiE10param_typeC2Eii
FNDA:0,_ZNKSt24uniform_int_distributionIiE10param_type1aEv
FNDA:0,_ZNKSt24uniform_int_distributionIiE10param_type1bEv
FNDA:0,_ZNSt24uniform_int_distributionIiEC2Eii
FNDA:0,_ZNSt24uniform_int_distributionIiEclISt23mersenne_twister_engineImLm32ELm624ELm397ELm31ELm2567483615ELm11ELm4294967295ELm7ELm2636928640ELm15ELm4022730752ELm18ELm1812433253EEEEiRT_
FNDA:0,_ZNSt24uniform_int_distributionIiE5_S_ndImSt23mersenne_twister_engineImLm32ELm624ELm397ELm31ELm2567483615ELm11ELm4294967295ELm7ELm2636928640ELm15ELm4022730752ELm18ELm1812433253EEjEET1_RT0_S4_
FNDA:0,_ZNSt24uniform_int_distributionIiEclISt23mersenne_twister_engineImLm32ELm624ELm397ELm31ELm2567483615ELm11ELm4294967295ELm7ELm2636928640ELm15ELm4022730752ELm18ELm1812433253EEEEiRT_RKNS0_10param_typeE
FNF:7
FNH:0
DA:104,0
DA:106,0
DA:108,0
DA:109,0
DA:112,0
DA:113,0
DA:116,0
DA:117,0
DA:142,0
DA:145,0
DA:146,0
DA:203,0
DA:204,0
DA:257,0
DA:269,0
DA:270,0
DA:271,0
DA:273,0
DA:274,0
DA:276,0
DA:277,0
DA:280,0
DA:287,0
DA:295,0
DA:296,0
DA:299,0
DA:301,0
DA:302,0
DA:305,0
DA:309,0
DA:327,0
DA:328,0
DA:342,0
DA:362,0
DA:363,0
DA:364,0
DA:365,0
DA:367,0
DA:370,0
DA:372,0
LF:40
LH:0
end_of_record
TN:
SF:/usr/include/c++/13/bits/unique_ptr.h
FN:174,174,_ZNSt15__uniq_ptr_implINSt7__cxx1112basic_stringIcSt11char_traitsIcESaIcEEESt14default_deleteIS5_EEC2Ev
FN:197,197,_ZNSt15__uniq_ptr_implINSt7__cxx1112basic_stringIcSt11char_traitsIcESaIcEEESt14default_deleteIS5_EE6_M_ptrEv
FN:197,197,_ZNSt15__uniq_ptr_implINSt7__cxx1118basic_stringstreamIcSt11char_traitsIcESaIcEEESt14default_deleteIS5_EE6_M_ptrEv
FN:201,201,_ZNSt15__uniq_ptr_implINSt7__cxx1112basic_stringIcSt11char_traitsIcESaIcEEESt14default_deleteIS5_EE10_M_deleterEv
FN:201,201,_ZNSt15__uniq_ptr_implINSt7__cxx1118basic_stringstreamIcSt11char_traitsIcESaIcEEESt14default_deleteIS5_EE10_M_deleterEv
FN:304,306,_ZNSt10unique_ptrINSt7__cxx1112basic_stringIcSt11char_traitsIcESaIcEEESt14default_deleteIS5_EEC2IS7_vEEv
FN:398,406,_ZNSt10unique_ptrINSt7__cxx1112basic_stringIcSt11char_traitsIcESaIcEEESt14default_deleteIS5_EED2Ev
FN:398,406,_ZNSt10unique_ptrINSt7__cxx1118basic_stringstreamIcSt11char_traitsIcESaIcEEESt14default_deleteIS5_EED2Ev
FN:475,476,_ZNSt10unique_ptrINSt7__cxx1112basic_stringIcSt11char_traitsIcESaIcEEESt14default_deleteIS5_EE11get_deleterEv
FN:475,476,_ZNSt10unique_ptrINSt7__cxx1118basic_stringstreamIcSt11char_traitsIcESaIcEEESt14default_deleteIS5_EE11get_deleterEv
FN:93,100,_ZNKSt14default_deleteINSt7__cxx1112basic_stringIcSt11char_traitsIcESaIcEEEEclEPS5_
FN:93,100,_ZNKSt14default_deleteINSt7__cxx1118basic_stringstreamIcSt11char_traitsIcESaIcEEEEclEPS5_
FNDA:39,_ZNSt15__uniq_ptr_implINSt7__cxx1112basic_stringIcSt11char_traitsIcESaIcEEESt14default_deleteIS5_EEC2Ev
FNDA:39,_ZNSt15__uniq_ptr_implINSt7__cxx1112basic_stringIcSt11char_traitsIcESaIcEEESt14default_deleteIS5_EE6_M_ptrEv
FNDA:0,_ZNSt15__uniq_ptr_implINSt7__cxx1118basic_stringstreamIcSt11char_traitsIcESaIcEEESt14default_deleteIS5_EE6_M_ptrEv
FNDA:0,_ZNSt15__uniq_ptr_implINSt7__cxx1112basic_stringIcSt11char_traitsIcESaIcEEESt14default_deleteIS5_EE10_M_deleterEv
FNDA:0,_ZNSt15__uniq_ptr_implINSt7__cxx1118basic_stringstreamIcSt11char_traitsIcESaIcEEESt14default_deleteIS5_EE10_M_deleterEv
FNDA:39,_ZNSt10unique_ptrINSt7__cxx1112basic_stringIcSt11char_traitsIcESaIcEEESt14default_deleteIS5_EEC2IS7_vEEv
FNDA:39,_ZNSt10unique_ptrINSt7__cxx1112basic_stringIcSt11char_traitsIcESaIcEEESt14default_deleteIS5_EED2Ev
FNDA:0,_ZNSt10unique_ptrINSt7__cxx1118basic_stringstreamIcSt11char_traitsIcESaIcEEESt14default_deleteIS5_EED2Ev
FNDA:0,_ZNSt10unique_ptrINSt7__cxx1112basic_stringIcSt11char_traitsIcESaIcEEESt14default_deleteIS5_EE11get_deleterEv
FNDA:0,_ZNSt10unique_ptrINSt7__cxx1118basic_stringstreamIcSt11char_traitsIcESaIcEEESt14default_deleteIS5_EE11get_deleterEv
FNDA:0,_ZNKSt14default_deleteINSt7__cxx1112basic_stringIcSt11char_traitsIcESaIcEEEEclEPS5_
FNDA:0,_ZNKSt14default_deleteINSt7__cxx1118basic_stringstreamIcSt11char_traitsIcESaIcEEEEclEPS5_
FNF:12
FNH:4
DA:93,0
DA:99,0
DA:100,0
DA:174,39
DA:197,39
DA:201,0
DA:304,39
DA:305,39
DA:306,39
DA:398,39
DA:402,39
DA:403,39
DA:404,0
DA:405,39
DA:406,39
DA:475,0
DA:476,0
LF:17
LH:10
end_of_record
TN:
SF:/usr/include/c++/13/bits/vector.tcc
FN:445,524,_ZNSt6vectorI12RadioChannelSaIS0_EE17_M_realloc_insertIJRKS0_EEEvN9__gnu_cxx17__normal_iteratorIPS0_S2_EEDpOT_
FNDA:0,_ZNSt6vectorI12RadioChannelSaIS0_EE17_M_realloc_insertIJRKS0_EEEvN9__gnu_cxx17__normal_iteratorIPS0_S2_EEDpOT_
FNF:1
FNH:0
DA:445,0
DA:455,0
DA:456,0
DA:457,0
DA:458,0
DA:459,0
DA:460,0
DA:468,0
DA:469,0
DA:475,0
DA:480,0
DA:481,0
DA:483,0
DA:485,0
DA:486,0
DA:504,0
DA:506,0
DA:507,0
DA:508,0
DA:510,0
DA:511,0
DA:512,0
DA:519,0
DA:520,0
DA:521,0
DA:522,0
DA:523,0
DA:524,0
LF:28
LH:0
end_of_record
TN:
SF:/usr/include/c++/13/ext/alloc_traits.h
FNF:0
FNH:0
DA:98,19
LF:1
LH:1
end_of_record
TN:
SF:/usr/include/c++/13/new
FN:174,175,_ZnwmPv
FN:180,180,_ZdlPvS_
FNDA:0,_ZnwmPv
FNDA:0,_ZdlPvS_
FNF:2
FNH:0
DA:174,0
DA:175,0
DA:180,0
LF:3
LH:0
end_of_record
TN:
SF:/usr/include/c++/13/tuple
FN:125,125,_ZNSt10_Head_baseILm1ESt14default_deleteINSt7__cxx1112basic_stringIcSt11char_traitsIcESaIcEEEELb1EE7_M_headERS8_
FN:125,125,_ZNSt10_Head_baseILm1ESt14default_deleteINSt7__cxx1118basic_stringstreamIcSt11char_traitsIcESaIcEEEELb1EE7_M_headERS8_
FN:1317,1319,_ZNSt5tupleIJPNSt7__cxx1112basic_stringIcSt11char_traitsIcESaIcEEESt14default_deleteIS5_EEEC2ILb1ELb1EEEv
FN:1787,1788,_ZSt12__get_helperILm0EPNSt7__cxx1112basic_stringIcSt11char_traitsIcESaIcEEEJSt14default_deleteIS5_EEERT0_RSt11_Tuple_implIXT_EJS9_DpT1_EE
FN:1787,1788,_ZSt12__get_helperILm0EPNSt7__cxx1118basic_stringstreamIcSt11char_traitsIcESaIcEEEJSt14default_deleteIS5_EEERT0_RSt11_Tuple_implIXT_EJS9_DpT1_EE
FN:1787,1788,_ZSt12__get_helperILm1ESt14default_deleteINSt7__cxx1112basic_stringIcSt11char_traitsIcESaIcEEEEJEERT0_RSt11_Tuple_implIXT_EJS8_DpT1_EE
FN:1787,1788,_ZSt12__get_helperILm1ESt14default_deleteINSt7__cxx1118basic_stringstreamIcSt11char_traitsIcESaIcEEEEJEERT0_RSt11_Tuple_implIXT_EJS8_DpT1_EE
FN:1803,1804,_ZSt3getILm0EJPNSt7__cxx1112basic_stringIcSt11char_traitsIcESaIcEEESt14default_deleteIS5_EEERNSt13tuple_elementIXT_ESt5tupleIJDpT0_EEE4typeERSD_
FN:1803,1804,_ZSt3getILm0EJPNSt7__cxx1118basic_stringstreamIcSt11char_traitsIcESaIcEEESt14default_deleteIS5_EEERNSt13tuple_elementIXT_ESt5tupleIJDpT0_EEE4typeERSD_
FN:1803,1804,_ZSt3getILm1EJPNSt7__cxx1112basic_stringIcSt11char_traitsIcESaIcEEESt14default_deleteIS5_EEERNSt13tuple_elementIXT_ESt5tupleIJDpT0_EEE4typeERSD_
FN:1803,1804,_ZSt3getILm1EJPNSt7__cxx1118basic_stringstreamIcSt11char_traitsIcESaIcEEESt14default_deleteIS5_EEERNSt13tuple_elementIXT_ESt5tupleIJDpT0_EEE4typeERSD_
FN:190,191,_ZNSt10_Head_baseILm0EPNSt7__cxx1112basic_stringIcSt11char_traitsIcESaIcEEELb0EEC2Ev
FN:234,234,_ZNSt10_Head_baseILm0EPNSt7__cxx1112basic_stringIcSt11char_traitsIcESaIcEEELb0EE7_M_headERS7_
FN:234,234,_ZNSt10_Head_baseILm0EPNSt7__cxx1118basic_stringstreamIcSt11char_traitsIcESaIcEEELb0EE7_M_headERS7_
FN:269,269,_ZNSt11_Tuple_implILm0EJPNSt7__cxx1112basic_stringIcSt11char_traitsIcESaIcEEESt14default_deleteIS5_EEE7_M_headERS9_
FN:269,269,_ZNSt11_Tuple_implILm0EJPNSt7__cxx1118basic_stringstreamIcSt11char_traitsIcESaIcEEESt14default_deleteIS5_EEE7_M_headERS9_
FN:280,281,_ZNSt11_Tuple_implILm0EJPNSt7__cxx1112basic_stringIcSt11char_traitsIcESaIcEEESt14default_deleteIS5_EEEC2Ev
FN:497,497,_ZNSt11_Tuple_implILm1EJSt14default_deleteINSt7__cxx1112basic_stringIcSt11char_traitsIcESaIcEEEEEE7_M_headERS8_
FN:497,497,_ZNSt11_Tuple_implILm1EJSt14default_deleteINSt7__cxx1118basic_stringstreamIcSt11char_traitsIcESaIcEEEEEE7_M_headERS8_
FN:503,504,_ZNSt11_Tuple_implILm1EJSt14default_deleteINSt7__cxx1112basic_stringIcSt11char_traitsIcESaIcEEEEEEC2Ev
FN:81,82,_ZNSt10_Head_baseILm1ESt14default_deleteINSt7__cxx1112basic_stringIcSt11char_traitsIcESaIcEEEELb1EEC2Ev
FNDA:0,_ZNSt10_Head_baseILm1ESt14default_deleteINSt7__cxx1112basic_stringIcSt11char_traitsIcESaIcEEEELb1EE7_M_headERS8_
FNDA:0,_ZNSt10_Head_baseILm1ESt14default_deleteINSt7__cxx1118basic_stringstreamIcSt11char_traitsIcESaIcEEEELb1EE7_M_headERS8_
FNDA:39,_ZNSt5tupleIJPNSt7__cxx1112basic_stringIcSt11char_traitsIcESaIcEEESt14default_deleteIS5_EEEC2ILb1ELb1EEEv
FNDA:39,_ZSt12__get_helperILm0EPNSt7__cxx1112basic_stringIcSt11char_traitsIcESaIcEEEJSt14default_deleteIS5_EEERT0_RSt11_Tuple_implIXT_EJS9_DpT1_EE
FNDA:0,_ZSt12__get_helperILm0EPNSt7__cxx1118basic_stringstreamIcSt11char_traitsIcESaIcEEEJSt14default_deleteIS5_EEERT0_RSt11_Tuple_implIXT_EJS9_DpT1_EE
FNDA:0,_ZSt12__get_helperILm1ESt14default_deleteINSt7__cxx1112basic_stringIcSt11char_traitsIcESaIcEEEEJEERT0_RSt11_Tuple_implIXT_EJS8_DpT1_EE
FNDA:0,_ZSt12__get_helperILm1ESt14default_deleteINSt7__cxx1118basic_stringstreamIcSt11char_traitsIcESaIcEEEEJEERT0_RSt11_Tuple_implIXT_EJS8_DpT1_EE
FNDA:39,_ZSt3getILm0EJPNSt7__cxx1112basic_stringIcSt11char_traitsIcESaIcEEESt14default_deleteIS5_EEERNSt13tuple_elementIXT_ESt5tupleIJDpT0_EEE4typeERSD_
FNDA:0,_ZSt3getILm0EJPNSt7__cxx1118basic_stringstreamIcSt11char_traitsIcESaIcEEESt14default_deleteIS5_EEERNSt13tuple_elementIXT_ESt5tupleIJDpT0_EEE4typeERSD_
FNDA:0,_ZSt3getILm1EJPNSt7__cxx1112basic_stringIcSt11char_traitsIcESaIcEEESt14default_deleteIS5_EEERNSt13tuple_elementIXT_ESt5tupleIJDpT0_EEE4typeERSD_
FNDA:0,_ZSt3getILm1EJPNSt7__cxx1118basic_stringstreamIcSt11char_traitsIcESaIcEEESt14default_deleteIS5_EEERNSt13tuple_elementIXT_ESt5tupleIJDpT0_EEE4typeERSD_
FNDA:39,_ZNSt10_Head_baseILm0EPNSt7__cxx1112basic_stringIcSt11char_traitsIcESaIcEEELb0EEC2Ev
FNDA:39,_ZNSt10_Head_baseILm0EPNSt7__cxx1112basic_stringIcSt11char_traitsIcESaIcEEELb0EE7_M_headERS7_
FNDA:0,_ZNSt10_Head_baseILm0EPNSt7__cxx1118basic_stringstreamIcSt11char_traitsIcESaIcEEELb0EE7_M_headERS7_
FNDA:39,_ZNSt11_Tuple_implILm0EJPNSt7__cxx1112basic_stringIcSt11char_traitsIcESaIcEEESt14default_deleteIS5_EEE7_M_headERS9_
FNDA:0,_ZNSt11_Tuple_implILm0EJPNSt7__cxx1118basic_stringstreamIcSt11char_traitsIcESaIcEEESt14default_deleteIS5_EEE7_M_headERS9_
FNDA:39,_ZNSt11_Tuple_implILm0EJPNSt7__cxx1112basic_stringIcSt11char_traitsIcESaIcEEESt14default_deleteIS5_EEEC2Ev
FNDA:0,_ZNSt11_Tuple_implILm1EJSt14default_deleteINSt7__cxx1112basic_stringIcSt11char_traitsIcESaIcEEEEEE7_M_headERS8_
FNDA:0,_ZNSt11_Tuple_implILm1EJSt14default_deleteINSt7__cxx1118basic_stringstreamIcSt11char_traitsIcESaIcEEEEEE7_M_headERS8_
FNDA:39,_ZNSt11_Tuple_implILm1EJSt14default_deleteINSt7__cxx1112basic_stringIcSt11char_traitsIcESaIcEEEEEEC2Ev
FNDA:39,_ZNSt10_Head_baseILm1ESt14default_deleteINSt7__cxx1112basic_stringIcSt11char_traitsIcESaIcEEEELb1EEC2Ev
FNF:21
FNH:9
DA:81,39
DA:82,39
DA:125,0
DA:190,39
DA:191,39
DA:234,39
DA:269,39
DA:280,39
DA:281,39
DA:497,0
DA:503,39
DA:504,39
DA:1317,39
DA:1319,39
DA:1787,39
DA:1788,39
DA:1803,39
DA:1804,39
LF:18
LH:16
end_of_record
TN:
SF:/usr/include/gtest/gtest-assertion-result.h
FN:155,161,_ZN7testing15AssertionResultC2IbEERKT_PNSt9enable_ifIXntsrSt14is_convertibleIS2_S0_E5valueEvE4typeE
FN:174,174,_ZNK7testing15AssertionResultcvbEv
FNDA:39,_ZN7testing15AssertionResultC2IbEERKT_PNSt9enable_ifIXntsrSt14is_convertibleIS2_S0_E5valueEvE4typeE
FNDA:39,_ZNK7testing15AssertionResultcvbEv
FNF:2
FNH:2
DA:155,39
DA:161,39
DA:174,39
LF:3
LH:3
end_of_record
TN:
SF:/usr/include/gtest/gtest-message.h
FNF:0
FNH:0
LF:0
LH:0
end_of_record
TN:
SF:/usr/include/gtest/gtest-test-part.h
FN:102,102,_ZNK7testing14TestPartResult17nonfatally_failedEv
FN:105,105,_ZNK7testing14TestPartResult14fatally_failedEv
FN:108,108,_ZNK7testing14TestPartResult6failedEv
FN:90,90,_ZNK7testing14TestPartResult7summaryEv
FNDA:0,_ZNK7testing14TestPartResult17nonfatally_failedEv
FNDA:0,_ZNK7testing14TestPartResult14fatally_failedEv
FNDA:0,_ZNK7testing14TestPartResult6failedEv
FNDA:0,_ZNK7testing14TestPartResult7summaryEv
FNF:4
FNH:0
DA:90,0
DA:102,0
DA:105,0
DA:108,0
LF:4
LH:0
end_of_record
TN:
SF:/usr/include/gtest/gtest.h
FN:1000,1000,_ZN7testing22EmptyTestEventListener16OnTestSuiteStartERKNS_9TestSuiteE
FN:1003,1003,_ZN7testing22EmptyTestEventListener15OnTestCaseStartERKNS_9TestSuiteE
FN:1006,1006,_ZN7testing22EmptyTestEventListener11OnTestStartERKNS_8TestInfoE
FN:1007,1007,_ZN7testing22EmptyTestEventListener14OnTestDisabledERKNS_8TestInfoE
FN:1008,1008,_ZN7testing22EmptyTestEventListener16OnTestPartResultERKNS_14TestPartResultE
FN:1009,1009,_ZN7testing22EmptyTestEventListener9OnTestEndERKNS_8TestInfoE
FN:1010,1010,_ZN7testing22EmptyTestEventListener14OnTestSuiteEndERKNS_9TestSuiteE
FN:1012,1012,_ZN7testing22EmptyTestEventListener13OnTestCaseEndERKNS_9TestSuiteE
FN:1015,1015,_ZN7testing22EmptyTestEventListener27OnEnvironmentsTearDownStartERKNS_8UnitTestE
FN:1016,1016,_ZN7testing22EmptyTestEventListener25OnEnvironmentsTearDownEndERKNS_8UnitTestE
FN:1017,1018,_ZN7testing22EmptyTestEventListener18OnTestIterationEndERKNS_8UnitTestEi
FN:1019,1019,_ZN7testing22EmptyTestEventListener16OnTestProgramEndERKNS_8UnitTestE
FN:1330,1332,_ZN7testing24AddGlobalTestEnvironmentEPNS_11EnvironmentE
FN:2283,2303,_ZN7testing12RegisterTestIJEZ24registerWebRTCTestSuitesvEUlvE0_EEPNS_8TestInfoEPKcS5_S5_S5_S5_iT0_
FN:2283,2303,_ZN7testing12RegisterTestIJEZ24registerWebRTCTestSuitesvEUlvE10_EEPNS_8TestInfoEPKcS5_S5_S5_S5_iT0_
FN:2283,2303,_ZN7testing12RegisterTestIJEZ24registerWebRTCTestSuitesvEUlvE11_EEPNS_8TestInfoEPKcS5_S5_S5_S5_iT0_
FN:2283,2303,_ZN7testing12RegisterTestIJEZ24registerWebRTCTestSuitesvEUlvE12_EEPNS_8TestInfoEPKcS5_S5_S5_S5_iT0_
FN:2283,2303,_ZN7testing12RegisterTestIJEZ24registerWebRTCTestSuitesvEUlvE13_EEPNS_8TestInfoEPKcS5_S5_S5_S5_iT0_
FN:2283,2303,_ZN7testing12RegisterTestIJEZ24registerWebRTCTestSuitesvEUlvE14_EEPNS_8TestInfoEPKcS5_S5_S5_S5_iT0_
FN:2283,2303,_ZN7testing12RegisterTestIJEZ24registerWebRTCTestSuitesvEUlvE15_EEPNS_8TestInfoEPKcS5_S5_S5_S5_iT0_
FN:2283,2303,_ZN7testing12RegisterTestIJEZ24registerWebRTCTestSuitesvEUlvE16_EEPNS_8TestInfoEPKcS5_S5_S5_S5_iT0_
FN:2283,2303,_ZN7testing12RegisterTestIJEZ24registerWebRTCTestSuitesvEUlvE17_EEPNS_8TestInfoEPKcS5_S5_S5_S5_iT0_
FN:2283,2303,_ZN7testing12RegisterTestIJEZ24registerWebRTCTestSuitesvEUlvE1_EEPNS_8TestInfoEPKcS5_S5_S5_S5_iT0_
FN:2283,2303,_ZN7testing12RegisterTestIJEZ24registerWebRTCTestSuitesvEUlvE2_EEPNS_8TestInfoEPKcS5_S5_S5_S5_iT0_
FN:2283,2303,_ZN7testing12RegisterTestIJEZ24registerWebRTCTestSuitesvEUlvE3_EEPNS_8TestInfoEPKcS5_S5_S5_S5_iT0_
FN:2283,2303,_ZN7testing12RegisterTestIJEZ24registerWebRTCTestSuitesvEUlvE4_EEPNS_8TestInfoEPKcS5_S5_S5_S5_iT0_
FN:2283,2303,_ZN7testing12RegisterTestIJEZ24registerWebRTCTestSuitesvEUlvE5_EEPNS_8TestInfoEPKcS5_S5_S5_S5_iT0_
FN:2283,2303,_ZN7testing12RegisterTestIJEZ24registerWebRTCTestSuitesvEUlvE6_EEPNS_8TestInfoEPKcS5_S5_S5_S5_iT0_
FN:2283,2303,_ZN7testing12RegisterTestIJEZ24registerWebRTCTestSuitesvEUlvE7_EEPNS_8TestInfoEPKcS5_S5_S5_S5_iT0_
FN:2283,2303,_ZN7testing12RegisterTestIJEZ24registerWebRTCTestSuitesvEUlvE8_EEPNS_8TestInfoEPKcS5_S5_S5_S5_iT0_
FN:2283,2303,_ZN7testing12RegisterTestIJEZ24registerWebRTCTestSuitesvEUlvE9_EEPNS_8TestInfoEPKcS5_S5_S5_S5_iT0_
FN:2283,2303,_ZN7testing12RegisterTestIJEZ24registerWebRTCTestSuitesvEUlvE_EEPNS_8TestInfoEPKcS5_S5_S5_S5_iT0_
FN:2290,2290,_ZZN7testing12RegisterTestIJEZ24registerWebRTCTestSuitesvEUlvE0_EEPNS_8TestInfoEPKcS5_S5_S5_S5_iT0_EN11FactoryImplC2ES1_
FN:2290,2290,_ZZN7testing12RegisterTestIJEZ24registerWebRTCTestSuitesvEUlvE10_EEPNS_8TestInfoEPKcS5_S5_S5_S5_iT0_EN11FactoryImplC2ES1_
FN:2290,2290,_ZZN7testing12RegisterTestIJEZ24registerWebRTCTestSuitesvEUlvE11_EEPNS_8TestInfoEPKcS5_S5_S5_S5_iT0_EN11FactoryImplC2ES1_
FN:2290,2290,_ZZN7testing12RegisterTestIJEZ24registerWebRTCTestSuitesvEUlvE12_EEPNS_8TestInfoEPKcS5_S5_S5_S5_iT0_EN11FactoryImplC2ES1_
FN:2290,2290,_ZZN7testing12RegisterTestIJEZ24registerWebRTCTestSuitesvEUlvE13_EEPNS_8TestInfoEPKcS5_S5_S5_S5_iT0_EN11FactoryImplC2ES1_
FN:2290,2290,_ZZN7testing12RegisterTestIJEZ24registerWebRTCTestSuitesvEUlvE14_EEPNS_8TestInfoEPKcS5_S5_S5_S5_iT0_EN11FactoryImplC2ES1_
FN:2290,2290,_ZZN7testing12RegisterTestIJEZ24registerWebRTCTestSuitesvEUlvE15_EEPNS_8TestInfoEPKcS5_S5_S5_S5_iT0_EN11FactoryImplC2ES1_
FN:2290,2290,_ZZN7testing12RegisterTestIJEZ24registerWebRTCTestSuitesvEUlvE16_EEPNS_8TestInfoEPKcS5_S5_S5_S5_iT0_EN11FactoryImplC2ES1_
FN:2290,2290,_ZZN7testing12RegisterTestIJEZ24registerWebRTCTestSuitesvEUlvE17_EEPNS_8TestInfoEPKcS5_S5_S5_S5_iT0_EN11FactoryImplC2ES1_
FN:2290,2290,_ZZN7testing12RegisterTestIJEZ24registerWebRTCTestSuitesvEUlvE1_EEPNS_8TestInfoEPKcS5_S5_S5_S5_iT0_EN11FactoryImplC2ES1_
FN:2290,2290,_ZZN7testing12RegisterTestIJEZ24registerWebRTCTestSuitesvEUlvE2_EEPNS_8TestInfoEPKcS5_S5_S5_S5_iT0_EN11FactoryImplC2ES1_
FN:2290,2290,_ZZN7testing12RegisterTestIJEZ24registerWebRTCTestSuitesvEUlvE3_EEPNS_8TestInfoEPKcS5_S5_S5_S5_iT0_EN11FactoryImplC2ES1_
FN:2290,2290,_ZZN7testing12RegisterTestIJEZ24registerWebRTCTestSuitesvEUlvE4_EEPNS_8TestInfoEPKcS5_S5_S5_S5_iT0_EN11FactoryImplC2ES1_
FN:2290,2290,_ZZN7testing12RegisterTestIJEZ24registerWebRTCTestSuitesvEUlvE5_EEPNS_8TestInfoEPKcS5_S5_S5_S5_iT0_EN11FactoryImplC2ES1_
FN:2290,2290,_ZZN7testing12RegisterTestIJEZ24registerWebRTCTestSuitesvEUlvE6_EEPNS_8TestInfoEPKcS5_S5_S5_S5_iT0_EN11FactoryImplC2ES1_
FN:2290,2290,_ZZN7testing12RegisterTestIJEZ24registerWebRTCTestSuitesvEUlvE7_EEPNS_8TestInfoEPKcS5_S5_S5_S5_iT0_EN11FactoryImplC2ES1_
FN:2290,2290,_ZZN7testing12RegisterTestIJEZ24registerWebRTCTestSuitesvEUlvE8_EEPNS_8TestInfoEPKcS5_S5_S5_S5_iT0_EN11FactoryImplC2ES1_
FN:2290,2290,_ZZN7testing12RegisterTestIJEZ24registerWebRTCTestSuitesvEUlvE9_EEPNS_8TestInfoEPKcS5_S5_S5_S5_iT0_EN11FactoryImplC2ES1_
FN:2290,2290,_ZZN7testing12RegisterTestIJEZ24registerWebRTCTestSuitesvEUlvE_EEPNS_8TestInfoEPKcS5_S5_S5_S5_iT0_EN11FactoryImplC2ES1_
FN:2291,2291,_ZZN7testing12RegisterTestIJEZ24registerWebRTCTestSuitesvEUlvE0_EEPNS_8TestInfoEPKcS5_S5_S5_S5_iT0_EN11FactoryImpl10CreateTestEv
FN:2291,2291,_ZZN7testing12RegisterTestIJEZ24registerWebRTCTestSuitesvEUlvE10_EEPNS_8TestInfoEPKcS5_S5_S5_S5_iT0_EN11FactoryImpl10CreateTestEv
FN:2291,2291,_ZZN7testing12RegisterTestIJEZ24registerWebRTCTestSuitesvEUlvE11_EEPNS_8TestInfoEPKcS5_S5_S5_S5_iT0_EN11FactoryImpl10CreateTestEv
FN:2291,2291,_ZZN7testing12RegisterTestIJEZ24registerWebRTCTestSuitesvEUlvE12_EEPNS_8TestInfoEPKcS5_S5_S5_S5_iT0_EN11FactoryImpl10CreateTestEv
FN:2291,2291,_ZZN7testing12RegisterTestIJEZ24registerWebRTCTestSuitesvEUlvE13_EEPNS_8TestInfoEPKcS5_S5_S5_S5_iT0_EN11FactoryImpl10CreateTestEv
FN:2291,2291,_ZZN7testing12RegisterTestIJEZ24registerWebRTCTestSuitesvEUlvE14_EEPNS_8TestInfoEPKcS5_S5_S5_S5_iT0_EN11FactoryImpl10CreateTestEv
FN:2291,2291,_ZZN7testing12RegisterTestIJEZ24registerWebRTCTestSuitesvEUlvE15_EEPNS_8TestInfoEPKcS5_S5_S5_S5_iT0_EN11FactoryImpl10CreateTestEv
FN:2291,2291,_ZZN7testing12RegisterTestIJEZ24registerWebRTCTestSuitesvEUlvE16_EEPNS_8TestInfoEPKcS5_S5_S5_S5_iT0_EN11FactoryImpl10CreateTestEv
FN:2291,2291,_ZZN7testing12RegisterTestIJEZ24registerWebRTCTestSuitesvEUlvE17_EEPNS_8TestInfoEPKcS5_S5_S5_S5_iT0_EN11FactoryImpl10CreateTestEv
FN:2291,2291,_ZZN7testing12RegisterTestIJEZ24registerWebRTCTestSuitesvEUlvE1_EEPNS_8TestInfoEPKcS5_S5_S5_S5_iT0_EN11FactoryImpl10CreateTestEv
FN:2291,2291,_ZZN7testing12RegisterTestIJEZ24registerWebRTCTestSuitesvEUlvE2_EEPNS_8TestInfoEPKcS5_S5_S5_S5_iT0_EN11FactoryImpl10CreateTestEv
FN:2291,2291,_ZZN7testing12RegisterTestIJEZ24registerWebRTCTestSuitesvEUlvE3_EEPNS_8TestInfoEPKcS5_S5_S5_S5_iT0_EN11FactoryImpl10CreateTestEv
FN:2291,2291,_ZZN7testing12RegisterTestIJEZ24registerWebRTCTestSuitesvEUlvE4_EEPNS_8TestInfoEPKcS5_S5_S5_S5_iT0_EN11FactoryImpl10CreateTestEv
FN:2291,2291,_ZZN7testing12RegisterTestIJEZ24registerWebRTCTestSuitesvEUlvE5_EEPNS_8TestInfoEPKcS5_S5_S5_S5_iT0_EN11FactoryImpl10CreateTestEv
FN:2291,2291,_ZZN7testing12RegisterTestIJEZ24registerWebRTCTestSuitesvEUlvE6_EEPNS_8TestInfoEPKcS5_S5_S5_S5_iT0_EN11FactoryImpl10CreateTestEv
FN:2291,2291,_ZZN7testing12RegisterTestIJEZ24registerWebRTCTestSuitesvEUlvE7_EEPNS_8TestInfoEPKcS5_S5_S5_S5_iT0_EN11FactoryImpl10CreateTestEv
FN:2291,2291,_ZZN7testing12RegisterTestIJEZ24registerWebRTCTestSuitesvEUlvE8_EEPNS_8TestInfoEPKcS5_S5_S5_S5_iT0_EN11FactoryImpl10CreateTestEv
FN:2291,2291,_ZZN7testing12RegisterTestIJEZ24registerWebRTCTestSuitesvEUlvE9_EEPNS_8TestInfoEPKcS5_S5_S5_S5_iT0_EN11FactoryImpl10CreateTestEv
FN:2291,2291,_ZZN7testing12RegisterTestIJEZ24registerWebRTCTestSuitesvEUlvE_EEPNS_8TestInfoEPKcS5_S5_S5_S5_iT0_EN11FactoryImpl10CreateTestEv
FN:2317,2317,_Z13RUN_ALL_TESTSv
FN:256,256,_ZN7testing4Test14SetUpTestSuiteEv
FN:264,264,_ZN7testing4Test17TearDownTestSuiteEv
FN:269,269,_ZN7testing4Test16TearDownTestCaseEv
FN:270,270,_ZN7testing4Test13SetUpTestCaseEv
FN:357,357,_ZN7testing4Test5SetupEv
FN:541,541,_ZNK7testing8TestInfo15test_suite_nameEv
FN:545,545,_ZNK7testing8TestInfo14test_case_nameEv
FN:549,549,_ZNK7testing8TestInfo4nameEv
FN:897,897,_ZN7testing11EnvironmentD0Ev
FN:897,897,_ZN7testing11EnvironmentD2Ev
FN:900,900,_ZN7testing11Environment5SetUpEv
FN:903,903,_ZN7testing11Environment8TearDownEv
FN:909,909,_ZN7testing11Environment5SetupEv
FN:928,928,_ZN7testing17TestEventListenerD0Ev
FN:928,928,_ZN7testing17TestEventListenerD2Ev
FN:946,946,_ZN7testing17TestEventListener16OnTestSuiteStartERKNS_9TestSuiteE
FN:950,950,_ZN7testing17TestEventListener15OnTestCaseStartERKNS_9TestSuiteE
FN:957,957,_ZN7testing17TestEventListener14OnTestDisabledERKNS_8TestInfoE
FN:968,968,_ZN7testing17TestEventListener14OnTestSuiteEndERKNS_9TestSuiteE
FN:972,972,_ZN7testing17TestEventListener13OnTestCaseEndERKNS_9TestSuiteE
FN:995,995,_ZN7testing22EmptyTestEventListener18OnTestProgramStartERKNS_8UnitTestE
FN:996,997,_ZN7testing22EmptyTestEventListener20OnTestIterationStartERKNS_8UnitTestEi
FN:998,998,_ZN7testing22EmptyTestEventListener24OnEnvironmentsSetUpStartERKNS_8UnitTestE
FN:999,999,_ZN7testing22EmptyTestEventListener22OnEnvironmentsSetUpEndERKNS_8UnitTestE
FNDA:11,_ZN7testing22EmptyTestEventListener16OnTestSuiteStartERKNS_9TestSuiteE
FNDA:11,_ZN7testing22EmptyTestEventListener15OnTestCaseStartERKNS_9TestSuiteE
FNDA:0,_ZN7testing22EmptyTestEventListener11OnTestStartERKNS_8TestInfoE
FNDA:0,_ZN7testing22EmptyTestEventListener14OnTestDisabledERKNS_8TestInfoE
FNDA:0,_ZN7testing22EmptyTestEventListener16OnTestPartResultERKNS_14TestPartResultE
FNDA:0,_ZN7testing22EmptyTestEventListener9OnTestEndERKNS_8TestInfoE
FNDA:11,_ZN7testing22EmptyTestEventListener14OnTestSuiteEndERKNS_9TestSuiteE
FNDA:11,_ZN7testing22EmptyTestEventListener13OnTestCaseEndERKNS_9TestSuiteE
FNDA:1,_ZN7testing22EmptyTestEventListener27OnEnvironmentsTearDownStartERKNS_8UnitTestE
FNDA:1,_ZN7testing22EmptyTestEventListener25OnEnvironmentsTearDownEndERKNS_8UnitTestE
FNDA:1,_ZN7testing22EmptyTestEventListener18OnTestIterationEndERKNS_8UnitTestEi
FNDA:1,_ZN7testing22EmptyTestEventListener16OnTestProgramEndERKNS_8UnitTestE
FNDA:1,_ZN7testing24AddGlobalTestEnvironmentEPNS_11EnvironmentE
FNDA:1,_ZN7testing12RegisterTestIJEZ24registerWebRTCTestSuitesvEUlvE0_EEPNS_8TestInfoEPKcS5_S5_S5_S5_iT0_
FNDA:1,_ZN7testing12RegisterTestIJEZ24registerWebRTCTestSuitesvEUlvE10_EEPNS_8TestInfoEPKcS5_S5_S5_S5_iT0_
FNDA:1,_ZN7testing12RegisterTestIJEZ24registerWebRTCTestSuitesvEUlvE11_EEPNS_8TestInfoEPKcS5_S5_S5_S5_iT0_
FNDA:1,_ZN7testing12RegisterTestIJEZ24registerWebRTCTestSuitesvEUlvE12_EEPNS_8TestInfoEPKcS5_S5_S5_S5_iT0_
FNDA:1,_ZN7testing12RegisterTestIJEZ24registerWebRTCTestSuitesvEUlvE13_EEPNS_8TestInfoEPKcS5_S5_S5_S5_iT0_
FNDA:1,_ZN7testing12RegisterTestIJEZ24registerWebRTCTestSuitesvEUlvE14_EEPNS_8TestInfoEPKcS5_S5_S5_S5_iT0_
FNDA:1,_ZN7testing12RegisterTestIJEZ24registerWebRTCTestSuitesvEUlvE15_EEPNS_8TestInfoEPKcS5_S5_S5_S5_iT0_
FNDA:1,_ZN7testing12RegisterTestIJEZ24registerWebRTCTestSuitesvEUlvE16_EEPNS_8TestInfoEPKcS5_S5_S5_S5_iT0_
FNDA:1,_ZN7testing12RegisterTestIJEZ24registerWebRTCTestSuitesvEUlvE17_EEPNS_8TestInfoEPKcS5_S5_S5_S5_iT0_
FNDA:1,_ZN7testing12RegisterTestIJEZ24registerWebRTCTestSuitesvEUlvE1_EEPNS_8TestInfoEPKcS5_S5_S5_S5_iT0_
FNDA:1,_ZN7testing12RegisterTestIJEZ24registerWebRTCTestSuitesvEUlvE2_EEPNS_8TestInfoEPKcS5_S5_S5_S5_iT0_
FNDA:1,_ZN7testing12RegisterTestIJEZ24registerWebRTCTestSuitesvEUlvE3_EEPNS_8TestInfoEPKcS5_S5_S5_S5_iT0_
FNDA:1,_ZN7testing12RegisterTestIJEZ24registerWebRTCTestSuitesvEUlvE4_EEPNS_8TestInfoEPKcS5_S5_S5_S5_iT0_
FNDA:1,_ZN7testing12RegisterTestIJEZ24registerWebRTCTestSuitesvEUlvE5_EEPNS_8TestInfoEPKcS5_S5_S5_S5_iT0_
FNDA:1,_ZN7testing12RegisterTestIJEZ24registerWebRTCTestSuitesvEUlvE6_EEPNS_8TestInfoEPKcS5_S5_S5_S5_iT0_
FNDA:1,_ZN7testing12RegisterTestIJEZ24registerWebRTCTestSuitesvEUlvE7_EEPNS_8TestInfoEPKcS5_S5_S5_S5_iT0_
FNDA:1,_ZN7testing12RegisterTestIJEZ24registerWebRTCTestSuitesvEUlvE8_EEPNS_8TestInfoEPKcS5_S5_S5_S5_iT0_
FNDA:1,_ZN7testing12RegisterTestIJEZ24registerWebRTCTestSuitesvEUlvE9_EEPNS_8TestInfoEPKcS5_S5_S5_S5_iT0_
FNDA:1,_ZN7testing12RegisterTestIJEZ24registerWebRTCTestSuitesvEUlvE_EEPNS_8TestInfoEPKcS5_S5_S5_S5_iT0_
FNDA:1,_ZZN7testing12RegisterTestIJEZ24registerWebRTCTestSuitesvEUlvE0_EEPNS_8TestInfoEPKcS5_S5_S5_S5_iT0_EN11FactoryImplC2ES1_
FNDA:1,_ZZN7testing12RegisterTestIJEZ24registerWebRTCTestSuitesvEUlvE10_EEPNS_8TestInfoEPKcS5_S5_S5_S5_iT0_EN11FactoryImplC2ES1_
FNDA:1,_ZZN7testing12RegisterTestIJEZ24registerWebRTCTestSuitesvEUlvE11_EEPNS_8TestInfoEPKcS5_S5_S5_S5_iT0_EN11FactoryImplC2ES1_
FNDA:1,_ZZN7testing12RegisterTestIJEZ24registerWebRTCTestSuitesvEUlvE12_EEPNS_8TestInfoEPKcS5_S5_S5_S5_iT0_EN11FactoryImplC2ES1_
FNDA:1,_ZZN7testing12RegisterTestIJEZ24registerWebRTCTestSuitesvEUlvE13_EEPNS_8TestInfoEPKcS5_S5_S5_S5_iT0_EN11FactoryImplC2ES1_
FNDA:1,_ZZN7testing12RegisterTestIJEZ24registerWebRTCTestSuitesvEUlvE14_EEPNS_8TestInfoEPKcS5_S5_S5_S5_iT0_EN11FactoryImplC2ES1_
FNDA:1,_ZZN7testing12RegisterTestIJEZ24registerWebRTCTestSuitesvEUlvE15_EEPNS_8TestInfoEPKcS5_S5_S5_S5_iT0_EN11FactoryImplC2ES1_
FNDA:1,_ZZN7testing12RegisterTestIJEZ24registerWebRTCTestSuitesvEUlvE16_EEPNS_8TestInfoEPKcS5_S5_S5_S5_iT0_EN11FactoryImplC2ES1_
FNDA:1,_ZZN7testing12RegisterTestIJEZ24registerWebRTCTestSuitesvEUlvE17_EEPNS_8TestInfoEPKcS5_S5_S5_S5_iT0_EN11FactoryImplC2ES1_
FNDA:1,_ZZN7testing12RegisterTestIJEZ24registerWebRTCTestSuitesvEUlvE1_EEPNS_8TestInfoEPKcS5_S5_S5_S5_iT0_EN11FactoryImplC2ES1_
FNDA:1,_ZZN7testing12RegisterTestIJEZ24registerWebRTCTestSuitesvEUlvE2_EEPNS_8TestInfoEPKcS5_S5_S5_S5_iT0_EN11FactoryImplC2ES1_
FNDA:1,_ZZN7testing12RegisterTestIJEZ24registerWebRTCTestSuitesvEUlvE3_EEPNS_8TestInfoEPKcS5_S5_S5_S5_iT0_EN11FactoryImplC2ES1_
FNDA:1,_ZZN7testing12RegisterTestIJEZ24registerWebRTCTestSuitesvEUlvE4_EEPNS_8TestInfoEPKcS5_S5_S5_S5_iT0_EN11FactoryImplC2ES1_
FNDA:1,_ZZN7testing12RegisterTestIJEZ24registerWebRTCTestSuitesvEUlvE5_EEPNS_8TestInfoEPKcS5_S5_S5_S5_iT0_EN11FactoryImplC2ES1_
FNDA:1,_ZZN7testing12RegisterTestIJEZ24registerWebRTCTestSuitesvEUlvE6_EEPNS_8TestInfoEPKcS5_S5_S5_S5_iT0_EN11FactoryImplC2ES1_
FNDA:1,_ZZN7testing12RegisterTestIJEZ24registerWebRTCTestSuitesvEUlvE7_EEPNS_8TestInfoEPKcS5_S5_S5_S5_iT0_EN11FactoryImplC2ES1_
FNDA:1,_ZZN7testing12RegisterTestIJEZ24registerWebRTCTestSuitesvEUlvE8_EEPNS_8TestInfoEPKcS5_S5_S5_S5_iT0_EN11FactoryImplC2ES1_
FNDA:1,_ZZN7testing12RegisterTestIJEZ24registerWebRTCTestSuitesvEUlvE9_EEPNS_8TestInfoEPKcS5_S5_S5_S5_iT0_EN11FactoryImplC2ES1_
FNDA:1,_ZZN7testing12RegisterTestIJEZ24registerWebRTCTestSuitesvEUlvE_EEPNS_8TestInfoEPKcS5_S5_S5_S5_iT0_EN11FactoryImplC2ES1_
FNDA:1,_ZZN7testing12RegisterTestIJEZ24registerWebRTCTestSuitesvEUlvE0_EEPNS_8TestInfoEPKcS5_S5_S5_S5_iT0_EN11FactoryImpl10CreateTestEv
FNDA:1,_ZZN7testing12RegisterTestIJEZ24registerWebRTCTestSuitesvEUlvE10_EEPNS_8TestInfoEPKcS5_S5_S5_S5_iT0_EN11FactoryImpl10CreateTestEv
FNDA:1,_ZZN7testing12RegisterTestIJEZ24registerWebRTCTestSuitesvEUlvE11_EEPNS_8TestInfoEPKcS5_S5_S5_S5_iT0_EN11FactoryImpl10CreateTestEv
FNDA:1,_ZZN7testing12RegisterTestIJEZ24registerWebRTCTestSuitesvEUlvE12_EEPNS_8TestInfoEPKcS5_S5_S5_S5_iT0_EN11FactoryImpl10CreateTestEv
FNDA:1,_ZZN7testing12RegisterTestIJEZ24registerWebRTCTestSuitesvEUlvE13_EEPNS_8TestInfoEPKcS5_S5_S5_S5_iT0_EN11FactoryImpl10CreateTestEv
FNDA:1,_ZZN7testing12RegisterTestIJEZ24registerWebRTCTestSuitesvEUlvE14_EEPNS_8TestInfoEPKcS5_S5_S5_S5_iT0_EN11FactoryImpl10CreateTestEv
FNDA:1,_ZZN7testing12RegisterTestIJEZ24registerWebRTCTestSuitesvEUlvE15_EEPNS_8TestInfoEPKcS5_S5_S5_S5_iT0_EN11FactoryImpl10CreateTestEv
FNDA:1,_ZZN7testing12RegisterTestIJEZ24registerWebRTCTestSuitesvEUlvE16_EEPNS_8TestInfoEPKcS5_S5_S5_S5_iT0_EN11FactoryImpl10CreateTestEv
FNDA:1,_ZZN7testing12RegisterTestIJEZ24registerWebRTCTestSuitesvEUlvE17_EEPNS_8TestInfoEPKcS5_S5_S5_S5_iT0_EN11FactoryImpl10CreateTestEv
FNDA:1,_ZZN7testing12RegisterTestIJEZ24registerWebRTCTestSuitesvEUlvE1_EEPNS_8TestInfoEPKcS5_S5_S5_S5_iT0_EN11FactoryImpl10CreateTestEv
FNDA:1,_ZZN7testing12RegisterTestIJEZ24registerWebRTCTestSuitesvEUlvE2_EEPNS_8TestInfoEPKcS5_S5_S5_S5_iT0_EN11FactoryImpl10CreateTestEv
FNDA:1,_ZZN7testing12RegisterTestIJEZ24registerWebRTCTestSuitesvEUlvE3_EEPNS_8TestInfoEPKcS5_S5_S5_S5_iT0_EN11FactoryImpl10CreateTestEv
FNDA:1,_ZZN7testing12RegisterTestIJEZ24registerWebRTCTestSuitesvEUlvE4_EEPNS_8TestInfoEPKcS5_S5_S5_S5_iT0_EN11FactoryImpl10CreateTestEv
FNDA:1,_ZZN7testing12RegisterTestIJEZ24registerWebRTCTestSuitesvEUlvE5_EEPNS_8TestInfoEPKcS5_S5_S5_S5_iT0_EN11FactoryImpl10CreateTestEv
FNDA:1,_ZZN7testing12RegisterTestIJEZ24registerWebRTCTestSuitesvEUlvE6_EEPNS_8TestInfoEPKcS5_S5_S5_S5_iT0_EN11FactoryImpl10CreateTestEv
FNDA:1,_ZZN7testing12RegisterTestIJEZ24registerWebRTCTestSuitesvEUlvE7_EEPNS_8TestInfoEPKcS5_S5_S5_S5_iT0_EN11FactoryImpl10CreateTestEv
FNDA:1,_ZZN7testing12RegisterTestIJEZ24registerWebRTCTestSuitesvEUlvE8_EEPNS_8TestInfoEPKcS5_S5_S5_S5_iT0_EN11FactoryImpl10CreateTestEv
FNDA:1,_ZZN7testing12RegisterTestIJEZ24registerWebRTCTestSuitesvEUlvE9_EEPNS_8TestInfoEPKcS5_S5_S5_S5_iT0_EN11FactoryImpl10CreateTestEv
FNDA:1,_ZZN7testing12RegisterTestIJEZ24registerWebRTCTestSuitesvEUlvE_EEPNS_8TestInfoEPKcS5_S5_S5_S5_iT0_EN11FactoryImpl10CreateTestEv
FNDA:1,_Z13RUN_ALL_TESTSv
FNDA:0,_ZN7testing4Test14SetUpTestSuiteEv
FNDA:0,_ZN7testing4Test17TearDownTestSuiteEv
FNDA:0,_ZN7testing4Test16TearDownTestCaseEv
FNDA:0,_ZN7testing4Test13SetUpTestCaseEv
FNDA:0,_ZN7testing4Test5SetupEv
FNDA:19,_ZNK7testing8TestInfo15test_suite_nameEv
FNDA:19,_ZNK7testing8TestInfo14test_case_nameEv
FNDA:57,_ZNK7testing8TestInfo4nameEv
FNDA:0,_ZN7testing11EnvironmentD0Ev
FNDA:1,_ZN7testing11EnvironmentD2Ev
FNDA:0,_ZN7testing11Environment5SetUpEv
FNDA:0,_ZN7testing11Environment8TearDownEv
FNDA:0,_ZN7testing11Environment5SetupEv
FNDA:0,_ZN7testing17TestEventListenerD0Ev
FNDA:1,_ZN7testing17TestEventListenerD2Ev
FNDA:11,_ZN7testing17TestEventListener16OnTestSuiteStartERKNS_9TestSuiteE
FNDA:0,_ZN7testing17TestEventListener15OnTestCaseStartERKNS_9TestSuiteE
FNDA:0,_ZN7testing17TestEventListener14OnTestDisabledERKNS_8TestInfoE
FNDA:11,_ZN7testing17TestEventListener14OnTestSuiteEndERKNS_9TestSuiteE
FNDA:0,_ZN7testing17TestEventListener13OnTestCaseEndERKNS_9TestSuiteE
FNDA:1,_ZN7testing22EmptyTestEventListener18OnTestProgramStartERKNS_8UnitTestE
FNDA:1,_ZN7testing22EmptyTestEventListener20OnTestIterationStartERKNS_8UnitTestEi
FNDA:1,_ZN7testing22EmptyTestEventListener24OnEnvironmentsSetUpStartERKNS_8UnitTestE
FNDA:1,_ZN7testing22EmptyTestEventListener22OnEnvironmentsSetUpEndERKNS_8UnitTestE
FNF:95
FNH:78
DA:256,0
DA:264,0
DA:269,0
DA:270,0
DA:357,0
DA:541,19
DA:545,19
DA:549,57
DA:897,1
DA:900,0
DA:903,0
DA:909,0
DA:928,1
DA:946,11
DA:950,0
DA:957,0
DA:968,11
DA:972,0
DA:995,1
DA:996,1
DA:997,1
DA:998,1
DA:999,1
DA:1000,11
DA:1003,11
DA:1006,0
DA:1007,0
DA:1008,0
DA:1009,0
DA:1010,11
DA:1012,11
DA:1015,1
DA:1016,1
DA:1017,1
DA:1018,1
DA:1019,1
DA:1330,1
DA:1331,1
DA:2283,19
DA:2290,19
DA:2291,19
DA:2297,38
DA:2299,57
DA:2302,57
DA:2317,1
LF:45
LH:30
end_of_record
TN:
SF:/usr/include/gtest/internal/gtest-internal.h
FN:419,425,_ZN7testing8internal9GetTypeIdINS_4TestEEEPKvv
FN:438,438,_ZN7testing8internal15TestFactoryBaseD0Ev
FN:438,438,_ZN7testing8internal15TestFactoryBaseD2Ev
FN:445,445,_ZN7testing8internal15TestFactoryBaseC2Ev
FN:478,479,_ZN7testing8internal12CodeLocationC2ERKNSt7__cxx1112basic_stringIcSt11char_traitsIcESaIcEEEi
FN:491,494,_ZN7testing8internal19GetNotDefaultOrNullEPFvvES2_
FN:506,525,_ZN7testing8internal16SuiteApiResolverINS_4TestEE19GetSetUpCaseOrSuiteEPKci
FN:527,546,_ZN7testing8internal16SuiteApiResolverINS_4TestEE22GetTearDownCaseOrSuiteEPKci
FNDA:19,_ZN7testing8internal9GetTypeIdINS_4TestEEEPKvv
FNDA:0,_ZN7testing8internal15TestFactoryBaseD0Ev
FNDA:19,_ZN7testing8internal15TestFactoryBaseD2Ev
FNDA:19,_ZN7testing8internal15TestFactoryBaseC2Ev
FNDA:19,_ZN7testing8internal12CodeLocationC2ERKNSt7__cxx1112basic_stringIcSt11char_traitsIcESaIcEEEi
FNDA:76,_ZN7testing8internal19GetNotDefaultOrNullEPFvvES2_
FNDA:19,_ZN7testing8internal16SuiteApiResolverINS_4TestEE19GetSetUpCaseOrSuiteEPKci
FNDA:19,_ZN7testing8internal16SuiteApiResolverINS_4TestEE22GetTearDownCaseOrSuiteEPKci
FNF:8
FNH:7
DA:419,19
DA:424,19
DA:438,19
DA:445,19
DA:478,19
DA:479,19
DA:491,76
DA:493,76
DA:506,19
DA:510,19
DA:512,19
DA:514,19
DA:517,0
DA:519,19
DA:527,19
DA:531,19
DA:533,19
DA:535,19
DA:538,0
DA:540,19
LF:20
LH:18
end_of_record
TN:
SF:/usr/include/gtest/internal/gtest-port.h
FN:1042,1042,_ZN7testing8internal8GTestLog9GetStreamEv
FNDA:0,_ZN7testing8internal8GTestLog9GetStreamEv
FNF:1
FNH:0
DA:1042,0
LF:1
LH:0
end_of_record
TN:
SF:/usr/include/x86_64-linux-gnu/c++/13/bits/c++config.h
FN:540,551,_ZSt23__is_constant_evaluatedv
FNDA:38,_ZSt23__is_constant_evaluatedv
FNF:1
FNH:1
DA:540,38
DA:547,38
LF:2
LH:2
end_of_record
TN:
SF:/usr/include/x86_64-linux-gnu/c++/13/bits/gthr-default.h
FN:300,303,_ZL18__gthread_active_pv
FN:746,752,_ZL20__gthread_mutex_lockP15pthread_mutex_t
FN:776,782,_ZL22__gthread_mutex_unlockP15pthread_mutex_t
FNDA:148,_ZL18__gthread_active_pv
FNDA:74,_ZL20__gthread_mutex_lockP15pthread_mutex_t
FNDA:74,_ZL22__gthread_mutex_unlockP15pthread_mutex_t
FNF:3
FNH:3
DA:300,148
DA:302,148
DA:746,74
DA:748,74
DA:749,74
DA:751,0
DA:776,74
DA:778,74
DA:779,74
DA:781,0
LF:10
LH:8
end_of_record
