TN:
SF:/home/haaken/github-projects/fgcom-mumble/test/webrtc_api_tests/main.cpp
FN:108,112,_ZN18WebRTCTestListener16OnTestPartResultERKN7testing14TestPartResultE
FN:117,125,_ZN18WebRTCTestListener13logTestResultERKN7testing8TestInfoEl
FN:129,244,_Z24registerWebRTCTestSuitesv
FN:134,134,_ZZ24registerWebRTCTestSuitesvENKUlvE_clEv
FN:140,140,_ZZ24registerWebRTCTestSuitesvENKUlvE0_clEv
FN:146,146,_ZZ24registerWebRTCTestSuitesvENKUlvE1_clEv
FN:152,152,_ZZ24registerWebRTCTestSuitesvENKUlvE2_clEv
FN:158,158,_ZZ24registerWebRTCTestSuitesvENKUlvE3_clEv
FN:164,164,_ZZ24registerWebRTCTestSuitesvENKUlvE4_clEv
FN:170,170,_ZZ24registerWebRTCTestSuitesvENKUlvE5_clEv
FN:176,176,_ZZ24registerWebRTCTestSuitesvENKUlvE6_clEv
FN:182,182,_ZZ24registerWebRTCTestSuitesvENKUlvE7_clEv
FN:188,188,_ZZ24registerWebRTCTestSuitesvENKUlvE8_clEv
FN:194,194,_ZZ24registerWebRTCTestSuitesvENKUlvE9_clEv
FN:200,200,_ZZ24registerWebRTCTestSuitesvENKUlvE10_clEv
FN:206,206,_ZZ24registerWebRTCTestSuitesvENKUlvE11_clEv
FN:212,212,_ZZ24registerWebRTCTestSuitesvENKUlvE12_clEv
FN:218,218,_ZZ24registerWebRTCTestSuitesvENKUlvE13_clEv
FN:224,224,_ZZ24registerWebRTCTestSuitesvENKUlvE14_clEv
FN:230,230,_ZZ24registerWebRTCTestSuitesvENKUlvE15_clEv
FN:236,236,_ZZ24registerWebRTCTestSuitesvENKUlvE16_clEv
FN:242,242,_ZZ24registerWebRTCTestSuitesvENKUlvE17_clEv
FN:246,300,main
FN:53,77,_ZN24WebRTCAPITestEnvironment5SetUpEv
FN:79,86,_ZN24WebRTCAPITestEnvironment8TearDownEv
FN:92,95,_ZN18WebRTCTestListener11OnTestStartERKN7testing8TestInfoE
FN:97,106,_ZN18WebRTCTestListener9OnTestEndERKN7testing8TestInfoE
FNDA:0,_ZN18WebRTCTestListener16OnTestPartResultERKN7testing14TestPartResultE
FNDA:19,_ZN18WebRTCTestListener13logTestResultERKN7testing8TestInfoEl
FNDA:1,_Z24registerWebRTCTestSuitesv
FNDA:1,_ZZ24registerWebRTCTestSuitesvENKUlvE_clEv
FNDA:1,_ZZ24registerWebRTCTestSuitesvENKUlvE0_clEv
FNDA:1,_ZZ24registerWebRTCTestSuitesvENKUlvE1_clEv
FNDA:1,_ZZ24registerWebRTCTestSuitesvENKUlvE2_clEv
FNDA:1,_ZZ24registerWebRTCTestSuitesvENKUlvE3_clEv
FNDA:1,_ZZ24registerWebRTCTestSuitesvENKUlvE4_clEv
FNDA:1,_ZZ24registerWebRTCTestSuitesvENKUlvE5_clEv
FNDA:1,_ZZ24registerWebRTCTestSuitesvENKUlvE6_clEv
FNDA:1,_ZZ24registerWebRTCTestSuitesvENKUlvE7_clEv
FNDA:1,_ZZ24registerWebRTCTestSuitesvENKUlvE8_clEv
FNDA:1,_ZZ24registerWebRTCTestSuitesvENKUlvE9_clEv
FNDA:1,_ZZ24registerWebRTCTestSuitesvENKUlvE10_clEv
FNDA:1,_ZZ24registerWebRTCTestSuitesvENKUlvE11_clEv
FNDA:1,_ZZ24registerWebRTCTestSuitesvENKUlvE12_clEv
FNDA:1,_ZZ24registerWebRTCTestSuitesvENKUlvE13_clEv
FNDA:1,_ZZ24registerWebRTCTestSuitesvENKUlvE14_clEv
FNDA:1,_ZZ24registerWebRTCTestSuitesvENKUlvE15_clEv
FNDA:1,_ZZ24registerWebRTCTestSuitesvENKUlvE16_clEv
FNDA:1,_ZZ24registerWebRTCTestSuitesvENKUlvE17_clEv
FNDA:1,main
FNDA:1,_ZN24WebRTCAPITestEnvironment5SetUpEv
FNDA:1,_ZN24WebRTCAPITestEnvironment8TearDownEv
FNDA:19,_ZN18WebRTCTestListener11OnTestStartERKN7testing8TestInfoE
FNDA:19,_ZN18WebRTCTestListener9OnTestEndERKN7testing8TestInfoE
FNF:27
FNH:26
DA:53,1
DA:54,1
DA:57,1
DA:58,1
DA:59,1
DA:60,1
DA:61,1
DA:62,1
DA:63,1
DA:66,1
DA:67,1
DA:68,1
DA:70,1
DA:74,1
DA:76,1
DA:77,1
DA:79,1
DA:80,1
DA:83,1
DA:85,1
DA:86,1
DA:92,19
DA:93,19
DA:94,19
DA:95,19
DA:97,19
DA:98,19
DA:99,19
DA:102,19
DA:105,19
DA:106,19
DA:108,0
DA:109,0
DA:110,0
DA:112,0
DA:117,19
DA:118,19
DA:119,19
DA:120,19
DA:122,19
DA:123,19
DA:125,19
DA:129,1
DA:131,1
DA:134,1
DA:137,1
DA:140,1
DA:143,1
DA:146,1
DA:149,1
DA:152,1
DA:155,1
DA:158,1
DA:161,1
DA:164,1
DA:167,1
DA:170,1
DA:173,1
DA:176,1
DA:179,1
DA:182,1
DA:185,1
DA:188,1
DA:191,1
DA:194,1
DA:197,1
DA:200,1
DA:203,1
DA:206,1
DA:209,1
DA:212,1
DA:215,1
DA:218,1
DA:221,1
DA:224,1
DA:227,1
DA:230,1
DA:233,1
DA:236,1
DA:239,1
DA:242,1
DA:244,1
DA:246,1
DA:247,1
DA:248,1
DA:249,1
DA:252,1
DA:255,1
DA:258,1
DA:261,1
DA:262,1
DA:265,1
DA:268,1
DA:269,0
DA:270,0
DA:271,0
DA:272,0
DA:273,0
DA:274,0
DA:275,0
DA:276,0
DA:277,0
DA:278,0
DA:279,0
DA:280,0
DA:281,0
DA:282,0
DA:283,0
DA:284,0
DA:285,0
DA:287,0
DA:290,1
DA:293,1
DA:294,1
DA:296,0
DA:299,1
LF:116
LH:93
end_of_record
TN:
SF:/home/haaken/github-projects/fgcom-mumble/test/webrtc_api_tests/test_audio_processing.h
FN:29,31,_ZN19AudioProcessingTest5SetUpEv
FN:33,36,_ZN19AudioProcessingTest8TestBodyEv
FNDA:1,_ZN19AudioProcessingTest5SetUpEv
FNDA:1,_ZN19AudioProcessingTest8TestBodyEv
FNF:2
FNH:2
DA:29,1
DA:30,1
DA:31,1
DA:33,1
DA:35,1
DA:36,1
LF:6
LH:6
end_of_record
TN:
SF:/home/haaken/github-projects/fgcom-mumble/test/webrtc_api_tests/test_audio_quality.h
FN:29,31,_ZN16AudioQualityTest5SetUpEv
FN:33,36,_ZN16AudioQualityTest8TestBodyEv
FNDA:1,_ZN16AudioQualityTest5SetUpEv
FNDA:1,_ZN16AudioQualityTest8TestBodyEv
FNF:2
FNH:2
DA:29,1
DA:30,1
DA:31,1
DA:33,1
DA:35,1
DA:36,1
LF:6
LH:6
end_of_record
TN:
SF:/home/haaken/github-projects/fgcom-mumble/test/webrtc_api_tests/test_authentication.h
FN:29,31,_ZN18AuthenticationTest5SetUpEv
FN:33,36,_ZN18AuthenticationTest8TestBodyEv
FN:41,43,_ZN21SessionManagementTest5SetUpEv
FN:45,48,_ZN21SessionManagementTest8TestBodyEv
FNDA:1,_ZN18AuthenticationTest5SetUpEv
FNDA:1,_ZN18AuthenticationTest8TestBodyEv
FNDA:1,_ZN21SessionManagementTest5SetUpEv
FNDA:1,_ZN21SessionManagementTest8TestBodyEv
FNF:4
FNH:4
DA:29,1
DA:30,1
DA:31,1
DA:33,1
DA:35,1
DA:36,1
DA:41,1
DA:42,1
DA:43,1
DA:45,1
DA:47,1
DA:48,1
LF:12
LH:12
end_of_record
TN:
SF:/home/haaken/github-projects/fgcom-mumble/test/webrtc_api_tests/test_cross_platform.h
FN:29,31,_ZN17CrossPlatformTest5SetUpEv
FN:33,36,_ZN17CrossPlatformTest8TestBodyEv
FNDA:1,_ZN17CrossPlatformTest5SetUpEv
FNDA:1,_ZN17CrossPlatformTest8TestBodyEv
FNF:2
FNH:2
DA:29,1
DA:30,1
DA:31,1
DA:33,1
DA:35,1
DA:36,1
LF:6
LH:6
end_of_record
TN:
SF:/home/haaken/github-projects/fgcom-mumble/test/webrtc_api_tests/test_error_recovery.h
FN:29,31,_ZN17ErrorRecoveryTest5SetUpEv
FN:33,36,_ZN17ErrorRecoveryTest8TestBodyEv
FNDA:1,_ZN17ErrorRecoveryTest5SetUpEv
FNDA:1,_ZN17ErrorRecoveryTest8TestBodyEv
FNF:2
FNH:2
DA:29,1
DA:30,1
DA:31,1
DA:33,1
DA:35,1
DA:36,1
LF:6
LH:6
end_of_record
TN:
SF:/home/haaken/github-projects/fgcom-mumble/test/webrtc_api_tests/test_full_workflow.h
FN:29,31,_ZN16FullWorkflowTest5SetUpEv
FN:33,36,_ZN16FullWorkflowTest8TestBodyEv
FNDA:1,_ZN16FullWorkflowTest5SetUpEv
FNDA:1,_ZN16FullWorkflowTest8TestBodyEv
FNF:2
FNH:2
DA:29,1
DA:30,1
DA:31,1
DA:33,1
DA:35,1
DA:36,1
LF:6
LH:6
end_of_record
TN:
SF:/home/haaken/github-projects/fgcom-mumble/test/webrtc_api_tests/test_mobile_compatibility.h
FN:29,31,_ZN23MobileCompatibilityTest5SetUpEv
FN:33,36,_ZN23MobileCompatibilityTest8TestBodyEv
FNDA:1,_ZN23MobileCompatibilityTest5SetUpEv
FNDA:1,_ZN23MobileCompatibilityTest8TestBodyEv
FNF:2
FNH:2
DA:29,1
DA:30,1
DA:31,1
DA:33,1
DA:35,1
DA:36,1
LF:6
LH:6
end_of_record
TN:
SF:/home/haaken/github-projects/fgcom-mumble/test/webrtc_api_tests/test_performance.h
FN:29,31,_ZN15PerformanceTest5SetUpEv
FN:33,36,_ZN15PerformanceTest8TestBodyEv
FN:41,43,_ZN13BandwidthTest5SetUpEv
FN:45,48,_ZN13BandwidthTest8TestBodyEv
FNDA:1,_ZN15PerformanceTest5SetUpEv
FNDA:1,_ZN15PerformanceTest8TestBodyEv
FNDA:1,_ZN13BandwidthTest5SetUpEv
FNDA:1,_ZN13BandwidthTest8TestBodyEv
FNF:4
FNH:4
DA:29,1
DA:30,1
DA:31,1
DA:33,1
DA:35,1
DA:36,1
DA:41,1
DA:42,1
DA:43,1
DA:45,1
DA:47,1
DA:48,1
LF:12
LH:12
end_of_record
TN:
SF:/home/haaken/github-projects/fgcom-mumble/test/webrtc_api_tests/test_protocol_translation.h
FN:29,31,_ZN23ProtocolTranslationTest5SetUpEv
FN:33,36,_ZN23ProtocolTranslationTest8TestBodyEv
FNDA:2,_ZN23ProtocolTranslationTest5SetUpEv
FNDA:2,_ZN23ProtocolTranslationTest8TestBodyEv
FNF:2
FNH:2
DA:29,2
DA:30,2
DA:31,2
DA:33,2
DA:35,2
DA:36,2
LF:6
LH:6
end_of_record
TN:
SF:/home/haaken/github-projects/fgcom-mumble/test/webrtc_api_tests/test_web_interface.h
FN:29,31,_ZN16WebInterfaceTest5SetUpEv
FN:33,36,_ZN16WebInterfaceTest8TestBodyEv
FN:41,43,_ZN18MapIntegrationTest5SetUpEv
FN:45,48,_ZN18MapIntegrationTest8TestBodyEv
FNDA:1,_ZN16WebInterfaceTest5SetUpEv
FNDA:1,_ZN16WebInterfaceTest8TestBodyEv
FNDA:1,_ZN18MapIntegrationTest5SetUpEv
FNDA:1,_ZN18MapIntegrationTest8TestBodyEv
FNF:4
FNH:4
DA:29,1
DA:30,1
DA:31,1
DA:33,1
DA:35,1
DA:36,1
DA:41,1
DA:42,1
DA:43,1
DA:45,1
DA:47,1
DA:48,1
LF:12
LH:12
end_of_record
TN:
SF:/home/haaken/github-projects/fgcom-mumble/test/webrtc_api_tests/test_webrtc_connection.h
FN:29,31,_ZN20WebRTCConnectionTest5SetUpEv
FN:33,36,_ZN20WebRTCConnectionTest8TestBodyEv
FN:41,43,_ZN19WebRTCSignalingTest5SetUpEv
FN:45,48,_ZN19WebRTCSignalingTest8TestBodyEv
FN:53,55,_ZN21WebRTCAudioStreamTest5SetUpEv
FN:57,60,_ZN21WebRTCAudioStreamTest8TestBodyEv
FNDA:1,_ZN20WebRTCConnectionTest5SetUpEv
FNDA:1,_ZN20WebRTCConnectionTest8TestBodyEv
FNDA:1,_ZN19WebRTCSignalingTest5SetUpEv
FNDA:1,_ZN19WebRTCSignalingTest8TestBodyEv
FNDA:1,_ZN21WebRTCAudioStreamTest5SetUpEv
FNDA:1,_ZN21WebRTCAudioStreamTest8TestBodyEv
FNF:6
FNH:6
DA:29,1
DA:30,1
DA:31,1
DA:33,1
DA:35,1
DA:36,1
DA:41,1
DA:42,1
DA:43,1
DA:45,1
DA:47,1
DA:48,1
DA:53,1
DA:54,1
DA:55,1
DA:57,1
DA:59,1
DA:60,1
LF:18
LH:18
end_of_record
TN:
SF:/home/haaken/github-projects/fgcom-mumble/test/webrtc_api_tests/test_webrtc_mumble_integration.h
FN:29,31,_ZN29WebRTCToMumbleIntegrationTest5SetUpEv
FN:33,36,_ZN29WebRTCToMumbleIntegrationTest8TestBodyEv
FN:41,43,_ZN29WebRTCToMumbleMultiClientTest5SetUpEv
FN:45,48,_ZN29WebRTCToMumbleMultiClientTest8TestBodyEv
FNDA:1,_ZN29WebRTCToMumbleIntegrationTest5SetUpEv
FNDA:1,_ZN29WebRTCToMumbleIntegrationTest8TestBodyEv
FNDA:1,_ZN29WebRTCToMumbleMultiClientTest5SetUpEv
FNDA:1,_ZN29WebRTCToMumbleMultiClientTest8TestBodyEv
FNF:4
FNH:4
DA:29,1
DA:30,1
DA:31,1
DA:33,1
DA:35,1
DA:36,1
DA:41,1
DA:42,1
DA:43,1
DA:45,1
DA:47,1
DA:48,1
LF:12
LH:12
end_of_record
TN:
SF:/home/haaken/github-projects/fgcom-mumble/test/webrtc_api_tests/webrtc_test_framework.cpp
FN:119,123,_ZN19WebRTCTestFramework17validateRadioDataERK9RadioData
FN:125,128,_ZN19WebRTCTestFramework9jsonToUDPERKNSt7__cxx1112basic_stringIcSt11char_traitsIcESaIcEEE
FN:130,133,_ZN19WebRTCTestFramework9udpToJSONERKNSt7__cxx1112basic_stringIcSt11char_traitsIcESaIcEEE
FN:135,137,_ZN19WebRTCTestFramework27validateProtocolTranslationERKNSt7__cxx1112basic_stringIcSt11char_traitsIcESaIcEEES7_
FN:139,141,_ZN19WebRTCTestFramework14measureLatencyEv
FN:143,145,_ZN19WebRTCTestFramework16measureBandwidthEv
FN:147,149,_ZN19WebRTCTestFramework19validatePerformanceEdd
FN:151,153,_ZN19WebRTCTestFramework20simulateNetworkErrorEv
FN:155,157,_ZN19WebRTCTestFramework18simulateAudioErrorEv
FN:159,162,_ZN19WebRTCTestFramework22simulateConnectionLossEv
FN:164,167,_ZN19WebRTCTestFramework17restoreConnectionEv
FN:169,174,_ZN19WebRTCTestFramework20generateTestCallsignB5cxx11Ev
FN:176,194,_ZN19WebRTCTestFramework21generateTestRadioDataEv
FN:196,198,_ZN19WebRTCTestFramework16generateTestJSONB5cxx11Ev
FN:200,202,_ZN19WebRTCTestFramework15generateTestUDPB5cxx11Ev
FN:205,207,_ZN19WebRTCTestFramework19createTestRadioDataEv
FN:209,211,_ZN19WebRTCTestFramework14createTestJSONB5cxx11Ev
FN:213,215,_ZN19WebRTCTestFramework13createTestUDPB5cxx11Ev
FN:217,222,_ZN19WebRTCTestFramework13logTestResultERKNSt7__cxx1112basic_stringIcSt11char_traitsIcESaIcEEEbS7_
FN:224,227,_ZN19WebRTCTestFramework15logAudioQualityERK19AudioQualityMetrics
FN:229,233,_ZN19WebRTCTestFramework14logPerformanceEdd
FN:33,38,_ZN19WebRTCTestFramework10initializeEv
FN:40,45,_ZN19WebRTCTestFramework7cleanupEv
FN:47,49,_ZN19WebRTCTestFramework9getConfigEv
FN:51,56,_ZN19WebRTCTestFramework19establishConnectionERKNSt7__cxx1112basic_stringIcSt11char_traitsIcESaIcEEE
FN:58,61,_ZN19WebRTCTestFramework15closeConnectionEv
FN:63,66,_ZN19WebRTCTestFramework18getConnectionStateEv
FN:68,70,_ZN19WebRTCTestFramework16startAudioStreamEv
FN:72,74,_ZN19WebRTCTestFramework15stopAudioStreamEv
FN:76,85,_ZN19WebRTCTestFramework19measureAudioQualityEv
FN:87,93,_ZN19WebRTCTestFramework20validateAudioQualityERK19AudioQualityMetrics
FN:95,97,_ZN19WebRTCTestFramework13sendRadioDataERK9RadioData
FN:99,117,_ZN19WebRTCTestFramework16receiveRadioDataEv
FNDA:0,_ZN19WebRTCTestFramework17validateRadioDataERK9RadioData
FNDA:0,_ZN19WebRTCTestFramework9jsonToUDPERKNSt7__cxx1112basic_stringIcSt11char_traitsIcESaIcEEE
FNDA:0,_ZN19WebRTCTestFramework9udpToJSONERKNSt7__cxx1112basic_stringIcSt11char_traitsIcESaIcEEE
FNDA:0,_ZN19WebRTCTestFramework27validateProtocolTranslationERKNSt7__cxx1112basic_stringIcSt11char_traitsIcESaIcEEES7_
FNDA:0,_ZN19WebRTCTestFramework14measureLatencyEv
FNDA:0,_ZN19WebRTCTestFramework16measureBandwidthEv
FNDA:0,_ZN19WebRTCTestFramework19validatePerformanceEdd
FNDA:0,_ZN19WebRTCTestFramework20simulateNetworkErrorEv
FNDA:0,_ZN19WebRTCTestFramework18simulateAudioErrorEv
FNDA:0,_ZN19WebRTCTestFramework22simulateConnectionLossEv
FNDA:0,_ZN19WebRTCTestFramework17restoreConnectionEv
FNDA:0,_ZN19WebRTCTestFramework20generateTestCallsignB5cxx11Ev
FNDA:0,_ZN19WebRTCTestFramework21generateTestRadioDataEv
FNDA:0,_ZN19WebRTCTestFramework16generateTestJSONB5cxx11Ev
FNDA:0,_ZN19WebRTCTestFramework15generateTestUDPB5cxx11Ev
FNDA:0,_ZN19WebRTCTestFramework19createTestRadioDataEv
FNDA:0,_ZN19WebRTCTestFramework14createTestJSONB5cxx11Ev
FNDA:0,_ZN19WebRTCTestFramework13createTestUDPB5cxx11Ev
FNDA:0,_ZN19WebRTCTestFramework13logTestResultERKNSt7__cxx1112basic_stringIcSt11char_traitsIcESaIcEEEbS7_
FNDA:0,_ZN19WebRTCTestFramework15logAudioQualityERK19AudioQualityMetrics
FNDA:0,_ZN19WebRTCTestFramework14logPerformanceEdd
FNDA:20,_ZN19WebRTCTestFramework10initializeEv
FNDA:20,_ZN19WebRTCTestFramework7cleanupEv
FNDA:17,_ZN19WebRTCTestFramework9getConfigEv
FNDA:17,_ZN19WebRTCTestFramework19establishConnectionERKNSt7__cxx1112basic_stringIcSt11char_traitsIcESaIcEEE
FNDA:17,_ZN19WebRTCTestFramework15closeConnectionEv
FNDA:0,_ZN19WebRTCTestFramework18getConnectionStateEv
FNDA:3,_ZN19WebRTCTestFramework16startAudioStreamEv
FNDA:3,_ZN19WebRTCTestFramework15stopAudioStreamEv
FNDA:0,_ZN19WebRTCTestFramework19measureAudioQualityEv
FNDA:0,_ZN19WebRTCTestFramework20validateAudioQualityERK19AudioQualityMetrics
FNDA:0,_ZN19WebRTCTestFramework13sendRadioDataERK9RadioData
FNDA:0,_ZN19WebRTCTestFramework16receiveRadioDataEv
FNF:33
FNH:7
DA:33,20
DA:34,20
DA:35,20
DA:36,19
DA:38,20
DA:40,20
DA:41,20
DA:42,20
DA:43,19
DA:45,20
DA:47,17
DA:48,17
DA:51,17
DA:52,17
DA:54,17
DA:55,17
DA:56,17
DA:58,17
DA:59,17
DA:60,17
DA:61,17
DA:63,0
DA:64,0
DA:65,0
DA:66,0
DA:68,3
DA:69,3
DA:72,3
DA:74,3
DA:76,0
DA:78,0
DA:79,0
DA:80,0
DA:81,0
DA:82,0
DA:83,0
DA:84,0
DA:87,0
DA:88,0
DA:89,0
DA:90,0
DA:91,0
DA:92,0
DA:95,0
DA:96,0
DA:99,0
DA:100,0
DA:101,0
DA:102,0
DA:103,0
DA:104,0
DA:106,0
DA:107,0
DA:108,0
DA:109,0
DA:110,0
DA:111,0
DA:112,0
DA:113,0
DA:114,0
DA:116,0
DA:117,0
DA:119,0
DA:120,0
DA:121,0
DA:122,0
DA:125,0
DA:127,0
DA:130,0
DA:132,0
DA:135,0
DA:136,0
DA:139,0
DA:140,0
DA:143,0
DA:144,0
DA:147,0
DA:148,0
DA:151,0
DA:153,0
DA:155,0
DA:157,0
DA:159,0
DA:160,0
DA:161,0
DA:162,0
DA:164,0
DA:165,0
DA:166,0
DA:167,0
DA:169,0
DA:170,0
DA:171,0
DA:172,0
DA:173,0
DA:176,0
DA:177,0
DA:178,0
DA:179,0
DA:180,0
DA:181,0
DA:183,0
DA:184,0
DA:185,0
DA:186,0
DA:187,0
DA:188,0
DA:189,0
DA:190,0
DA:191,0
DA:193,0
DA:194,0
DA:196,0
DA:197,0
DA:200,0
DA:201,0
DA:205,0
DA:206,0
DA:209,0
DA:210,0
DA:213,0
DA:214,0
DA:217,0
DA:222,0
DA:224,0
DA:227,0
DA:229,0
DA:233,0
LF:128
LH:25
end_of_record
TN:
SF:/home/haaken/github-projects/fgcom-mumble/test/webrtc_api_tests/webrtc_test_framework.h
FN:152,155,_ZN24WebRTCConnectionTestBase5SetUpEv
FN:157,160,_ZN24WebRTCConnectionTestBase8TearDownEv
FN:192,196,_ZN23AudioProcessingTestBase5SetUpEv
FN:198,202,_ZN23AudioProcessingTestBase8TearDownEv
FN:216,218,_ZN27ProtocolTranslationTestBase5SetUpEv
FN:220,222,_ZN27ProtocolTranslationTestBase8TearDownEv
FN:240,243,_ZN19PerformanceTestBase5SetUpEv
FN:245,248,_ZN19PerformanceTestBase8TearDownEv
FNDA:12,_ZN24WebRTCConnectionTestBase5SetUpEv
FNDA:12,_ZN24WebRTCConnectionTestBase8TearDownEv
FNDA:3,_ZN23AudioProcessingTestBase5SetUpEv
FNDA:3,_ZN23AudioProcessingTestBase8TearDownEv
FNDA:2,_ZN27ProtocolTranslationTestBase5SetUpEv
FNDA:2,_ZN27ProtocolTranslationTestBase8TearDownEv
FNDA:2,_ZN19PerformanceTestBase5SetUpEv
FNDA:2,_ZN19PerformanceTestBase8TearDownEv
FNF:8
FNH:8
DA:152,12
DA:153,12
DA:154,12
DA:157,12
DA:158,12
DA:159,12
DA:160,12
DA:192,3
DA:193,3
DA:194,3
DA:195,3
DA:198,3
DA:199,3
DA:200,3
DA:201,3
DA:202,3
DA:216,2
DA:217,2
DA:218,2
DA:220,2
DA:221,2
DA:222,2
DA:240,2
DA:241,2
DA:242,2
DA:245,2
DA:246,2
DA:247,2
DA:248,2
LF:29
LH:29
end_of_record
